
rtos_based.elf:     file format elf32-littlenios2
rtos_based.elf
architecture: nios2:r1, flags 0x00000112:
EXEC_P, HAS_SYMS, D_PAGED
start address 0x000001c0

Program Header:
    LOAD off    0x00001000 vaddr 0x00000000 paddr 0x00000000 align 2**12
         filesz 0x00000020 memsz 0x00000020 flags r-x
    LOAD off    0x00001020 vaddr 0x00000020 paddr 0x00000020 align 2**12
         filesz 0x0001884c memsz 0x0001884c flags r-x
    LOAD off    0x0001986c vaddr 0x0001886c paddr 0x0001a3e4 align 2**12
         filesz 0x00001b78 memsz 0x00001b78 flags rw-
    LOAD off    0x0001bf5c vaddr 0x0001bf5c paddr 0x0001bf5c align 2**12
         filesz 0x00000000 memsz 0x00006408 flags rw-

Sections:
Idx Name          Size      VMA       LMA       File off  Algn
  0 .entry        00000020  00000000  00000000  00001000  2**5
                  CONTENTS, ALLOC, LOAD, READONLY, CODE
  1 .exceptions   000001a0  00000020  00000020  00001020  2**2
                  CONTENTS, ALLOC, LOAD, READONLY, CODE
  2 .text         000181c0  000001c0  000001c0  000011c0  2**2
                  CONTENTS, ALLOC, LOAD, READONLY, CODE
  3 .rodata       000004ec  00018380  00018380  00019380  2**2
                  CONTENTS, ALLOC, LOAD, READONLY, DATA
  4 .rwdata       00001b78  0001886c  0001a3e4  0001986c  2**2
                  CONTENTS, ALLOC, LOAD, DATA, SMALL_DATA
  5 .bss          00006408  0001bf5c  0001bf5c  0001bf5c  2**2
                  ALLOC, SMALL_DATA
  6 .memory       00000000  00022364  00022364  0001b3e4  2**0
                  CONTENTS
  7 .comment      00000023  00000000  00000000  0001b3e4  2**0
                  CONTENTS, READONLY
  8 .debug_aranges 00001058  00000000  00000000  0001b408  2**3
                  CONTENTS, READONLY, DEBUGGING
  9 .debug_info   0002db66  00000000  00000000  0001c460  2**0
                  CONTENTS, READONLY, DEBUGGING
 10 .debug_abbrev 0000af0e  00000000  00000000  00049fc6  2**0
                  CONTENTS, READONLY, DEBUGGING
 11 .debug_line   0000deb4  00000000  00000000  00054ed4  2**0
                  CONTENTS, READONLY, DEBUGGING
 12 .debug_frame  000032b0  00000000  00000000  00062d88  2**2
                  CONTENTS, READONLY, DEBUGGING
 13 .debug_str    00004894  00000000  00000000  00066038  2**0
                  CONTENTS, READONLY, DEBUGGING
 14 .debug_loc    000179dc  00000000  00000000  0006a8cc  2**0
                  CONTENTS, READONLY, DEBUGGING
 15 .debug_alt_sim_info 00000010  00000000  00000000  000822a8  2**2
                  CONTENTS, READONLY, DEBUGGING
 16 .debug_ranges 00001900  00000000  00000000  000822b8  2**3
                  CONTENTS, READONLY, DEBUGGING
 17 .thread_model 00000006  00000000  00000000  00088752  2**0
                  CONTENTS, READONLY
 18 .cpu          00000005  00000000  00000000  00088758  2**0
                  CONTENTS, READONLY
 19 .qsys         00000001  00000000  00000000  0008875d  2**0
                  CONTENTS, READONLY
 20 .simulation_enabled 00000001  00000000  00000000  0008875e  2**0
                  CONTENTS, READONLY
 21 .sysid_hash   00000004  00000000  00000000  0008875f  2**0
                  CONTENTS, READONLY
 22 .sysid_base   00000004  00000000  00000000  00088763  2**0
                  CONTENTS, READONLY
 23 .sysid_time   00000004  00000000  00000000  00088767  2**0
                  CONTENTS, READONLY
 24 .stderr_dev   00000009  00000000  00000000  0008876b  2**0
                  CONTENTS, READONLY
 25 .stdin_dev    00000009  00000000  00000000  00088774  2**0
                  CONTENTS, READONLY
 26 .stdout_dev   00000009  00000000  00000000  0008877d  2**0
                  CONTENTS, READONLY
 27 .sopc_system_name 0000000f  00000000  00000000  00088786  2**0
                  CONTENTS, READONLY
 28 .quartus_project_dir 00000046  00000000  00000000  00088795  2**0
                  CONTENTS, READONLY
 29 .jdi          00004d9e  00000000  00000000  000887db  2**0
                  CONTENTS, READONLY
 30 .sopcinfo     00044877  00000000  00000000  0008d579  2**0
                  CONTENTS, READONLY
SYMBOL TABLE:
00000000 l    d  .entry	00000000 .entry
00000020 l    d  .exceptions	00000000 .exceptions
000001c0 l    d  .text	00000000 .text
00018380 l    d  .rodata	00000000 .rodata
0001886c l    d  .rwdata	00000000 .rwdata
0001bf5c l    d  .bss	00000000 .bss
00022364 l    d  .memory	00000000 .memory
00000000 l    d  .comment	00000000 .comment
00000000 l    d  .debug_aranges	00000000 .debug_aranges
00000000 l    d  .debug_info	00000000 .debug_info
00000000 l    d  .debug_abbrev	00000000 .debug_abbrev
00000000 l    d  .debug_line	00000000 .debug_line
00000000 l    d  .debug_frame	00000000 .debug_frame
00000000 l    d  .debug_str	00000000 .debug_str
00000000 l    d  .debug_loc	00000000 .debug_loc
00000000 l    d  .debug_alt_sim_info	00000000 .debug_alt_sim_info
00000000 l    d  .debug_ranges	00000000 .debug_ranges
00000000 l    df *ABS*	00000000 ../rtos_based_bsp//obj/HAL/src/crt0.o
000001f8 l       .text	00000000 alt_after_alt_main
00000000 l    df *ABS*	00000000 alt_exception_entry.o
00000094 l       .exceptions	00000000 alt_exception_unknown
00000000 l    df *ABS*	00000000 alt_irq_handler.c
00000000 l    df *ABS*	00000000 hello_ucosii.cpp
00000828 l     F .text	00000064 _Z41__static_initialization_and_destruction_0ii
0000088c l     F .text	00000030 _GLOBAL__sub_I_buttons
00000000 l    df *ABS*	00000000 button.cpp
00000000 l    df *ABS*	00000000 lib2-divmod.c
00000000 l    df *ABS*	00000000 printf.c
00000000 l    df *ABS*	00000000 puts.c
00000000 l    df *ABS*	00000000 rand.c
00000000 l    df *ABS*	00000000 strlen.c
00000000 l    df *ABS*	00000000 vfprintf.c
00018496 l     O .rodata	00000010 zeroes.4404
00003160 l     F .text	000000bc __sbprintf
000184a6 l     O .rodata	00000010 blanks.4403
00000000 l    df *ABS*	00000000 wsetup.c
00000000 l    df *ABS*	00000000 dtoa.c
00003370 l     F .text	00000228 quorem
00000000 l    df *ABS*	00000000 fflush.c
00000000 l    df *ABS*	00000000 findfp.c
00004ec8 l     F .text	00000008 __fp_unlock
00004edc l     F .text	0000019c __sinit.part.1
00005078 l     F .text	00000008 __fp_lock
00000000 l    df *ABS*	00000000 mallocr.c
00000000 l    df *ABS*	00000000 fvwrite.c
00000000 l    df *ABS*	00000000 fwalk.c
00000000 l    df *ABS*	00000000 impure.c
0001886c l     O .rwdata	00000424 impure_data
00000000 l    df *ABS*	00000000 locale.c
00018cb0 l     O .rwdata	00000020 lc_ctype_charset
00018c90 l     O .rwdata	00000020 lc_message_charset
00018cd0 l     O .rwdata	00000038 lconv
00000000 l    df *ABS*	00000000 makebuf.c
00000000 l    df *ABS*	00000000 mallocr.c
00000000 l    df *ABS*	00000000 memchr.c
00000000 l    df *ABS*	00000000 memcpy.c
00000000 l    df *ABS*	00000000 memmove.c
00000000 l    df *ABS*	00000000 memset.c
00000000 l    df *ABS*	00000000 mprec.c
000184d8 l     O .rodata	0000000c p05.2768
00000000 l    df *ABS*	00000000 mallocr.c
00000000 l    df *ABS*	00000000 s_fpclassify.c
00000000 l    df *ABS*	00000000 sbrkr.c
00000000 l    df *ABS*	00000000 stdio.c
00000000 l    df *ABS*	00000000 strcmp.c
00000000 l    df *ABS*	00000000 vfprintf.c
0000854c l     F .text	000000fc __sprint_r.part.0
000185fc l     O .rodata	00000010 zeroes.4349
00009b88 l     F .text	000000bc __sbprintf
0001860c l     O .rodata	00000010 blanks.4348
00000000 l    df *ABS*	00000000 writer.c
00000000 l    df *ABS*	00000000 closer.c
00000000 l    df *ABS*	00000000 mallocr.c
00000000 l    df *ABS*	00000000 fclose.c
00000000 l    df *ABS*	00000000 fputwc.c
00000000 l    df *ABS*	00000000 fstatr.c
00000000 l    df *ABS*	00000000 int_errno.c
00000000 l    df *ABS*	00000000 isattyr.c
00000000 l    df *ABS*	00000000 lseekr.c
00000000 l    df *ABS*	00000000 readr.c
00000000 l    df *ABS*	00000000 wbuf.c
00000000 l    df *ABS*	00000000 wcrtomb.c
00000000 l    df *ABS*	00000000 wctomb_r.c
00000000 l    df *ABS*	00000000 libgcc2.c
00000000 l    df *ABS*	00000000 libgcc2.c
00000000 l    df *ABS*	00000000 libgcc2.c
00000000 l    df *ABS*	00000000 lib2-mul.c
00000000 l    df *ABS*	00000000 adddf3.c
00000000 l    df *ABS*	00000000 divdf3.c
00000000 l    df *ABS*	00000000 eqdf2.c
00000000 l    df *ABS*	00000000 gedf2.c
00000000 l    df *ABS*	00000000 ledf2.c
00000000 l    df *ABS*	00000000 muldf3.c
00000000 l    df *ABS*	00000000 subdf3.c
00000000 l    df *ABS*	00000000 fixdfsi.c
00000000 l    df *ABS*	00000000 floatsidf.c
00000000 l    df *ABS*	00000000 floatunsidf.c
00000000 l    df *ABS*	00000000 libgcc2.c
00000000 l    df *ABS*	00000000 libgcc2.c
00000000 l    df *ABS*	00000000 alt_close.c
0000db28 l     F .text	0000003c alt_get_errno
00000000 l    df *ABS*	00000000 alt_dev.c
0000dc3c l     F .text	0000002c alt_dev_null_write
00000000 l    df *ABS*	00000000 alt_errno.c
00000000 l    df *ABS*	00000000 alt_fstat.c
0000dc68 l     F .text	0000003c alt_get_errno
00000000 l    df *ABS*	00000000 alt_iic.c
00000000 l    df *ABS*	00000000 alt_iic_isr_register.c
00000000 l    df *ABS*	00000000 alt_irq_vars.c
00000000 l    df *ABS*	00000000 alt_isatty.c
0000dffc l     F .text	0000003c alt_get_errno
00000000 l    df *ABS*	00000000 alt_load.c
0000e0e4 l     F .text	00000068 alt_load_section
00000000 l    df *ABS*	00000000 alt_lseek.c
0000e1d0 l     F .text	0000003c alt_get_errno
00000000 l    df *ABS*	00000000 alt_main.c
00000000 l    df *ABS*	00000000 alt_read.c
0000e3a4 l     F .text	0000003c alt_get_errno
00000000 l    df *ABS*	00000000 alt_release_fd.c
00000000 l    df *ABS*	00000000 alt_sbrk.c
0001a35c l     O .rwdata	00000004 heap_end
00000000 l    df *ABS*	00000000 alt_write.c
0000e618 l     F .text	0000003c alt_get_errno
00000000 l    df *ABS*	00000000 alt_env_lock.c
0001a360 l     O .rwdata	00000004 lockid
0001bf9c l     O .bss	00000004 locks
00000000 l    df *ABS*	00000000 alt_malloc_lock.c
0001a364 l     O .rwdata	00000004 lockid
0001bfa4 l     O .bss	00000004 locks
00000000 l    df *ABS*	00000000 os_core.c
00010050 l     F .text	00000048 OS_InitMisc
00010098 l     F .text	0000006c OS_InitRdyList
00010204 l     F .text	000000e4 OS_InitTCBList
0000ff70 l     F .text	000000e0 OS_InitEventList
00010104 l     F .text	00000080 OS_InitTaskIdle
00010184 l     F .text	00000080 OS_InitTaskStat
00010474 l     F .text	00000074 OS_SchedNew
00000000 l    df *ABS*	00000000 os_dbg.c
00000000 l    df *ABS*	00000000 os_flag.c
00012184 l     F .text	000000f4 OS_FlagTaskRdy
00011f44 l     F .text	00000160 OS_FlagBlock
00000000 l    df *ABS*	00000000 os_mem.c
00000000 l    df *ABS*	00000000 os_q.c
00000000 l    df *ABS*	00000000 os_sem.c
00000000 l    df *ABS*	00000000 os_task.c
00000000 l    df *ABS*	00000000 os_time.c
00000000 l    df *ABS*	00000000 alt_sys_init.c
0001625c l     F .text	00000034 alt_dev_reg
000192b8 l     O .rwdata	0000106c jtag_uart
00000000 l    df *ABS*	00000000 altera_avalon_jtag_uart_fd.c
00000000 l    df *ABS*	00000000 altera_avalon_jtag_uart_init.c
000165d8 l     F .text	000002a4 altera_avalon_jtag_uart_irq
0001687c l     F .text	00000104 altera_avalon_jtag_uart_timeout
00000000 l    df *ABS*	00000000 altera_avalon_jtag_uart_ioctl.c
00000000 l    df *ABS*	00000000 altera_avalon_jtag_uart_read.c
00000000 l    df *ABS*	00000000 altera_avalon_jtag_uart_write.c
00000000 l    df *ABS*	00000000 altera_avalon_timer_sc.c
00017058 l     F .text	00000078 alt_avalon_timer_sc_irq
00000000 l    df *ABS*	00000000 alt_alarm_start.c
00000000 l    df *ABS*	00000000 alt_dcache_flush_all.c
00000000 l    df *ABS*	00000000 alt_dev_llist_insert.c
00017298 l     F .text	0000003c alt_get_errno
00000000 l    df *ABS*	00000000 alt_do_ctors.c
00000000 l    df *ABS*	00000000 alt_do_dtors.c
00000000 l    df *ABS*	00000000 alt_icache_flush_all.c
00000000 l    df *ABS*	00000000 alt_io_redirect.c
00017458 l     F .text	000000e4 alt_open_fd
00000000 l    df *ABS*	00000000 alt_open.c
000175b8 l     F .text	0000003c alt_get_errno
000175f4 l     F .text	000000ec alt_file_locked
00000000 l    df *ABS*	00000000 alt_tick.c
00000000 l    df *ABS*	00000000 altera_nios2_qsys_irq.c
00000000 l    df *ABS*	00000000 os_cpu_a.o
00000040 l       *ABS*	00000000 OSCtxSw_SWITCH_PC
00000000 l    df *ABS*	00000000 os_cpu_c.c
00000014 l       *ABS*	00000000 OSTCBNext_OFFSET
00000032 l       *ABS*	00000000 OSTCBPrio_OFFSET
00000000 l       *ABS*	00000000 OSTCBStkPtr_OFFSET
00000000 l    df *ABS*	00000000 alt_find_dev.c
00000000 l    df *ABS*	00000000 alt_find_file.c
00000000 l    df *ABS*	00000000 alt_get_fd.c
00000000 l    df *ABS*	00000000 atexit.c
00000000 l    df *ABS*	00000000 exit.c
00000000 l    df *ABS*	00000000 memcmp.c
00000000 l    df *ABS*	00000000 __atexit.c
00000000 l    df *ABS*	00000000 __call_atexit.c
00000000 l    df *ABS*	00000000 alt_exit.c
00007b90 g     F .text	00000074 _mprec_log10
0001a3b2 g     O .rwdata	00000002 OSTaskNameSize
00000910 g     F .text	0000007c _ZN9buttons_c3isrEPv
00007c7c g     F .text	0000008c __any_on
0000a13c g     F .text	00000054 _isatty_r
000184e4 g     O .rodata	00000028 __mprec_tinytens
0000e2e8 g     F .text	000000bc alt_main
000003f8 g     F .text	0000038c _Z14reaction_meterPv
00000c80 g     F .text	000000c0 _puts_r
0001f040 g     O .bss	00000100 alt_irq
0000a190 g     F .text	00000060 _lseek_r
000129a4 g     F .text	000000d8 OS_MemInit
0001a3e4 g       *ABS*	00000000 __flash_rwdata_start
000161fc g     F .text	00000060 OSTimeSet
0000c500 g     F .text	00000088 .hidden __eqdf2
0000ecc4 g     F .text	00000610 OSEventPendMulti
00022364 g       *ABS*	00000000 __alt_heap_start
00017c30 g     F .text	00000024 OSTaskCreateHook
0001c018 g     O .bss	00001000 task1_stk
00000c44 g     F .text	0000003c printf
0001a38a g     O .rwdata	00000002 OSMboxEn
000003b0 g     F .text	00000048 _Z11rotate_leftii
0000f32c g     F .text	0000004c OSIntEnter
0000a3a8 g     F .text	0000009c _wcrtomb_r
0000840c g     F .text	0000005c __sseek
00005228 g     F .text	00000010 __sinit
0000a250 g     F .text	00000140 __swbuf_r
0001a39a g     O .rwdata	00000002 OSQEn
00005cfc g     F .text	0000007c _setlocale_r
00005080 g     F .text	00000078 __sfmoreglue
0000e998 g     F .text	000000cc __malloc_unlock
00017c98 g     F .text	00000020 OSTaskStatHook
0001bfac g     O .bss	00000001 OSLockNesting
0001bf68 g     O .bss	00000001 tries
0001a3d8 g     O .rwdata	00000002 OSDataSize
0001bfad g     O .bss	00000001 OSRunning
000069cc g     F .text	0000015c memmove
00017cd8 g     F .text	00000020 OSInitHookBegin
0001a3d0 g     O .rwdata	00000002 OSTmrSize
00005210 g     F .text	00000018 _cleanup
00006c50 g     F .text	000000a8 _Balloc
0001bfb0 g     O .bss	00000004 OSIdleCtr
0000c588 g     F .text	000000dc .hidden __gtdf2
00017ab0 g       .text	00000000 OSStartTsk
000107a4 g     F .text	000002d4 OS_TCBInit
00000000 g     F .entry	0000000c __reset
0001a3d6 g     O .rwdata	00000002 OSTmrWheelTblSize
00000020 g       *ABS*	00000000 __flash_exceptions_start
0001bf5c g     O .bss	00000004 running_sem
0001a376 g     O .rwdata	00000002 OSEventSize
0001bfb4 g     O .bss	00000001 OSPrioHighRdy
0000a0e0 g     F .text	0000005c _fstat_r
00017c54 g     F .text	00000024 OSTaskDelHook
0001bf84 g     O .bss	00000004 errno
00008388 g     F .text	00000008 __seofread
00017a90 g       .text	00000000 OSStartHighRdy
00014c7c g     F .text	000001e4 OSTaskCreateExt
00011a8c g     F .text	00000060 OSFlagPendGetFlagsRdy
0001a3b6 g     O .rwdata	00000002 OSTaskStatStkSize
00010c08 g     F .text	00000308 OSFlagAccept
00012fe8 g     F .text	000000b8 OSQFlush
00012a7c g     F .text	00000140 OSQAccept
0001bf94 g     O .bss	00000004 alt_argv
00022324 g       *ABS*	00000000 _gp
00014ad0 g     F .text	000001ac OSTaskCreate
000145e0 g     F .text	000004f0 OSTaskChangePrio
0001bfa8 g     O .bss	00000004 alt_heapsem
00010a78 g     F .text	00000190 OSDebugInit
00014e60 g     F .text	00000344 OSTaskDel
00019138 g     O .rwdata	00000180 alt_fd_list
0001f140 g     O .bss	00000370 OSFlagTbl
0000fd50 g     F .text	000000b8 OS_EventTaskRemove
00017d5c g     F .text	00000090 alt_find_dev
00006884 g     F .text	00000148 memcpy
0001a3a0 g     O .rwdata	00000002 OSRdyTblSize
00004ed0 g     F .text	0000000c _cleanup_r
0000d940 g     F .text	000000dc .hidden __floatsidf
0001753c g     F .text	0000007c alt_io_redirect
0000c664 g     F .text	000000f4 .hidden __ltdf2
00018380 g       *ABS*	00000000 __DTOR_END__
00000d40 g     F .text	00000014 puts
0000ea64 g     F .text	00000120 OSEventNameGet
0001a384 g     O .rwdata	00000002 OSFlagMax
0000826c g     F .text	00000074 __fpclassifyd
00007aec g     F .text	000000a4 __ratio
0000f378 g     F .text	000000f8 OSIntExit
00009b6c g     F .text	0000001c __vfiprintf_internal
0001a3be g     O .rwdata	00000002 OSTCBSize
0001bfb5 g     O .bss	00000001 OSPrioCur
00016ad8 g     F .text	000002bc altera_avalon_jtag_uart_read
00000c14 g     F .text	00000030 _printf_r
00000b58 g     F .text	00000064 .hidden __udivsi3
0000e038 g     F .text	000000ac isatty
0001a3a4 g     O .rwdata	00000002 OSStkWidth
00018534 g     O .rodata	000000c8 __mprec_tens
0001a398 g     O .rwdata	00000002 OSPtrSize
00005d78 g     F .text	0000000c __locale_charset
0001a378 g     O .rwdata	00000002 OSEventTblSize
00017a04 g       .text	00000000 OSCtxSw
0000098c g     F .text	00000094 _ZN9buttons_c4initEPFvhE
0001bf80 g     O .bss	00000004 __malloc_top_pad
0001bfb8 g     O .bss	00000004 OSTCBList
0001bf88 g     O .bss	00000004 alt_fd_list_lock
0001a330 g     O .rwdata	00000004 __mb_cur_max
00005da8 g     F .text	0000000c _localeconv_r
00007084 g     F .text	0000003c __i2b
000056ac g     F .text	000004c8 __sfvwrite_r
0001f4b0 g     O .bss	00000c30 OSMemTbl
0001bfbc g     O .bss	00000001 OSTickStepState
000082e0 g     F .text	00000054 _sbrk_r
0001a39c g     O .rwdata	00000002 OSQMax
000200e0 g     O .bss	00000800 OSTaskStatStk
000125e0 g     F .text	000000f0 OSMemNameGet
0001a37c g     O .rwdata	00000002 OSFlagEn
0000a1f0 g     F .text	00000060 _read_r
0001a3c2 g     O .rwdata	00000002 OSTimeTickHookEn
00013498 g     F .text	00000168 OSQPost
00012278 g     F .text	000000a4 OS_FlagUnlink
0001a350 g     O .rwdata	00000004 alt_max_fd
0001033c g     F .text	00000068 OS_MemCopy
000103a4 g     F .text	000000d0 OS_Sched
00009dd4 g     F .text	000000f0 _fclose_r
000124f0 g     F .text	000000f0 OSMemGet
0001548c g     F .text	000001b4 OSTaskNameSet
00004e98 g     F .text	00000030 fflush
0001bf7c g     O .bss	00000004 __malloc_max_sbrked_mem
0001bfc0 g     O .bss	00000004 OSCtxSwCtr
00017cb8 g     F .text	00000020 OSTimeTickHook
0001a386 g     O .rwdata	00000002 OSFlagNameSize
0000fe08 g     F .text	00000100 OS_EventTaskRemoveMulti
0000b284 g     F .text	000008ac .hidden __adddf3
0000fc00 g     F .text	00000150 OS_EventTaskWaitMulti
00007894 g     F .text	0000010c __b2d
0001a39e g     O .rwdata	00000002 OSQSize
0000ac98 g     F .text	000005c4 .hidden __umoddi3
0000e20c g     F .text	000000dc lseek
00013f48 g     F .text	0000020c OSSemPend
0001a328 g     O .rwdata	00000004 _global_impure_ptr
00007d08 g     F .text	00000564 _realloc_r
0001a388 g     O .rwdata	00000002 OSLowestPrio
00022364 g       *ABS*	00000000 __bss_end
0000df0c g     F .text	000000f0 alt_iic_isr_register
00017d38 g     F .text	00000024 OSTCBInitHook
0001a3ce g     O .rwdata	00000002 OSTmrCfgTicksPerSec
000178d8 g     F .text	00000108 alt_tick
0000a69c g     F .text	000005fc .hidden __udivdi3
0000a03c g     F .text	00000024 _fputwc_r
0001a370 g     O .rwdata	00000002 OSEventEn
0001850c g     O .rodata	00000028 __mprec_bigtens
00006e68 g     F .text	00000104 __s2b
0001a3ca g     O .rwdata	00000002 OSTmrCfgNameSize
0000da1c g     F .text	000000a8 .hidden __floatunsidf
000075d4 g     F .text	00000060 __mcmp
00005248 g     F .text	00000018 __fp_lock_all
0000dec0 g     F .text	0000004c alt_ic_irq_enabled
000120a4 g     F .text	000000e0 OS_FlagInit
0001783c g     F .text	0000009c alt_alarm_stop
0001a3ac g     O .rwdata	00000002 OSTaskIdleStkSize
0001bf8c g     O .bss	00000004 alt_irq_active
00013b80 g     F .text	000000b0 OSSemAccept
000127e4 g     F .text	000000d8 OSMemPut
0001231c g     F .text	000001d4 OSMemCreate
0001bfc4 g     O .bss	00000004 OSIdleCtrMax
000000ec g     F .exceptions	000000d4 alt_irq_handler
00019110 g     O .rwdata	00000028 alt_dev_null
0001a3c0 g     O .rwdata	00000002 OSTicksPerSec
00017a04 g       .text	00000000 OSIntCtxSw
00017278 g     F .text	00000020 alt_dcache_flush_all
00006f6c g     F .text	00000068 __hi0bits
0000d8c0 g     F .text	00000080 .hidden __fixdfsi
0001bfc8 g     O .bss	00000004 OSTCBFreeList
0001a3e4 g       *ABS*	00000000 __ram_rwdata_end
00014154 g     F .text	0000016c OSSemPendAbort
0001a348 g     O .rwdata	00000008 alt_dev_list
0000e654 g     F .text	00000100 write
0001a3c4 g     O .rwdata	00000002 OSVersionNbr
0001886c g       *ABS*	00000000 __ram_rodata_end
0000dca4 g     F .text	000000b8 fstat
0000c664 g     F .text	000000f4 .hidden __ledf2
0001a36c g     O .rwdata	00000004 OSEndiannessTest
0000734c g     F .text	00000140 __pow5mult
00008660 g     F .text	0000150c ___vfiprintf_internal_r
0001bf74 g     O .bss	00000004 __nlocale_changed
00000bbc g     F .text	00000058 .hidden __umodsi3
0001a37e g     O .rwdata	00000002 OSFlagGrpSize
00022364 g       *ABS*	00000000 end
00016490 g     F .text	00000148 altera_avalon_jtag_uart_init
0001060c g     F .text	000000cc OS_TaskStat
0001837c g       *ABS*	00000000 __CTOR_LIST__
00030000 g       *ABS*	00000000 __alt_stack_pointer
000008bc g     F .text	00000054 _ZN9buttons_cC2Emmm
000170d0 g     F .text	0000007c alt_avalon_timer_sc_init
0000dac4 g     F .text	00000064 .hidden __clzsi2
00016d94 g     F .text	000002c4 altera_avalon_jtag_uart_write
00005238 g     F .text	00000004 __sfp_lock_acquire
000067a0 g     F .text	000000e4 memchr
000102e8 g     F .text	00000054 OS_MemClr
00000e68 g     F .text	000022dc ___vfprintf_internal_r
00017ad4 g     F .text	0000015c OSTaskStkInit
0000539c g     F .text	00000310 _free_r
00005d84 g     F .text	00000010 __locale_mb_cur_max
0000f958 g     F .text	00000198 OS_EventTaskRdy
000181c8 g     F .text	00000180 __call_exitprocs
0001bfcc g     O .bss	00000001 OSCPUUsage
0001bf70 g     O .bss	00000004 __mlocale_changed
0001a334 g     O .rwdata	00000004 __malloc_sbrk_base
000001c0 g     F .text	0000003c _start
0001bffc g     O .bss	00000004 _alt_tick_rate
000130a0 g     F .text	0000028c OSQPend
00015d4c g     F .text	00000104 OSTimeDly
00000d6c g     F .text	00000064 rand
0000748c g     F .text	00000148 __lshift
0001c000 g     O .bss	00000004 _alt_nticks
0000e3e0 g     F .text	00000104 read
000162c8 g     F .text	00000064 alt_sys_init
000180b0 g     F .text	00000118 __register_exitproc
0001bfcd g     O .bss	00000001 OSTaskCtr
00015e50 g     F .text	0000017c OSTimeDlyHMSM
000070c0 g     F .text	0000028c __multiply
00016980 g     F .text	00000068 altera_avalon_jtag_uart_close
0000b25c g     F .text	00000028 .hidden __mulsi3
0001886c g       *ABS*	00000000 __ram_rwdata_start
00018380 g       *ABS*	00000000 __ram_rodata_start
0001f018 g     O .bss	00000028 __malloc_current_mallinfo
0001a372 g     O .rwdata	00000002 OSEventMax
000079a0 g     F .text	0000014c __d2b
000142c0 g     F .text	00000110 OSSemPost
0000f4fc g     F .text	000000dc OSSchedUnlock
0001632c g     F .text	00000060 altera_avalon_jtag_uart_read_fd
00017ef4 g     F .text	000000f4 alt_get_fd
0001bfd0 g     O .bss	00000004 OSMemFreeList
0000f648 g     F .text	000000b0 OSStatInit
00011e80 g     F .text	000000c4 OSFlagQuery
0001a3a8 g     O .rwdata	00000002 OSTaskCreateExtEn
00009ca4 g     F .text	00000054 _close_r
00018034 g     F .text	0000007c memcmp
0000f938 g     F .text	00000020 OS_Dummy
000163ec g     F .text	00000050 altera_avalon_jtag_uart_close_fd
00022364 g       *ABS*	00000000 __alt_stack_base
0001643c g     F .text	00000054 altera_avalon_jtag_uart_ioctl_fd
0001bf60 g     O .bss	00000004 start_sem
0000321c g     F .text	00000154 __swsetup_r
000208e0 g     O .bss	000001e0 OSQTbl
0000bb30 g     F .text	000009d0 .hidden __divdf3
000050f8 g     F .text	00000118 __sfp
00007c04 g     F .text	00000078 __copybits
00018d08 g     O .rwdata	00000408 __malloc_av_
00005244 g     F .text	00000004 __sinit_lock_release
0001bfd4 g     O .bss	00000004 OSTCBHighRdy
0000c758 g     F .text	0000086c .hidden __muldf3
00008334 g     F .text	00000054 __sread
0001bfd8 g     O .bss	00000004 OSQFreeList
00017dec g     F .text	00000108 alt_find_file
000172d4 g     F .text	000000a4 alt_dev_llist_insert
0000e878 g     F .text	00000120 __malloc_lock
0000e568 g     F .text	000000b0 sbrk
0000eb84 g     F .text	00000140 OSEventNameSet
00004e3c g     F .text	0000005c _fflush_r
0001bf64 g     O .bss	00000004 stop_sem
00000a20 g     F .text	00000040 _ZN9buttons_c7pressedEh
00009cf8 g     F .text	000000dc _calloc_r
0001bfdc g     O .bss	00000001 OSRdyGrp
0001bf5c g       *ABS*	00000000 __bss_start
00006b28 g     F .text	00000128 memset
00000784 g     F .text	000000a4 main
0001bf98 g     O .bss	00000004 alt_envp
0001bf78 g     O .bss	00000004 __malloc_max_total_mem
0001638c g     F .text	00000060 altera_avalon_jtag_uart_write_fd
0001c004 g     O .bss	00000014 buttons
0000a390 g     F .text	00000018 __swbuf
00000d54 g     F .text	00000018 srand
00018738 g     O .rodata	00000100 OSUnMapTbl
0001a3a2 g     O .rwdata	00000002 OSSemEn
00011aec g     F .text	00000394 OSFlagPost
00008468 g     F .text	00000008 __sclose
00030000 g       *ABS*	00000000 __alt_heap_limit
00009ec4 g     F .text	00000014 fclose
0000faf0 g     F .text	00000110 OS_EventTaskWait
0001d018 g     O .bss	00001000 task2_stk
000106d8 g     F .text	000000cc OS_TaskStatStkChk
000151a4 g     F .text	00000150 OSTaskDelReq
00003598 g     F .text	00001688 _dtoa_r
00005f94 g     F .text	0000080c _malloc_r
0000a504 g     F .text	00000030 __ascii_wctomb
000001fc g     F .text	000000d4 _Z10show_scorej
0001a354 g     O .rwdata	00000004 alt_errno
0000f5d8 g     F .text	00000070 OSStart
0001e018 g     O .bss	00001000 task3_stk
0000e818 g     F .text	00000060 __env_unlock
00005b74 g     F .text	000000c4 _fwalk
00015640 g     F .text	000001d4 OSTaskResume
000128bc g     F .text	000000e8 OSMemQuery
0001a3b4 g     O .rwdata	00000002 OSTaskStatEn
0000034c g     F .text	00000064 _Z10button_isrh
0001a38e g     O .rwdata	00000002 OSMemMax
00013600 g     F .text	00000170 OSQPostFront
00000a60 g     F .text	00000084 .hidden __divsi3
0001bfdd g     O .bss	00000003 OSRdyTbl
0001a368 g     O .rwdata	00000002 OSDebugEn
00005278 g     F .text	00000124 _malloc_trim_r
00018380 g       *ABS*	00000000 __CTOR_END__
0001a380 g     O .rwdata	00000002 OSFlagNodeSize
0001a3c8 g     O .rwdata	00000002 OSTmrCfgMax
00008470 g     F .text	000000dc strcmp
00012bbc g     F .text	000001ac OSQCreate
000152f4 g     F .text	00000198 OSTaskNameGet
00018380 g       *ABS*	00000000 __flash_rodata_start
00013770 g     F .text	0000020c OSQPostOpt
0000f6f8 g     F .text	00000220 OSTimeTick
0001a3b0 g     O .rwdata	00000002 OSTaskMax
00018380 g       *ABS*	00000000 __DTOR_LIST__
00013c30 g     F .text	000000d8 OSSemCreate
0001a3d4 g     O .rwdata	00000002 OSTmrWheelSize
000002d0 g     F .text	0000007c _Z10show_triesj
0000c500 g     F .text	00000088 .hidden __nedf2
0001a3aa g     O .rwdata	00000002 OSTaskDelEn
000143d0 g     F .text	00000110 OSSemQuery
00012d68 g     F .text	00000280 OSQDel
0001332c g     F .text	0000016c OSQPendAbort
00016290 g     F .text	00000038 alt_irq_init
0000e4e4 g     F .text	00000084 alt_release_fd
0001861c g     O .rodata	00000100 .hidden __clz_tab
0001bf6c g     O .bss	00000004 _PathLocale
00017fe8 g     F .text	00000014 atexit
00009c44 g     F .text	00000060 _write_r
0000f470 g     F .text	0000008c OSSchedLock
00005db4 g     F .text	00000018 setlocale
00010f10 g     F .text	00000108 OSFlagCreate
0001a32c g     O .rwdata	00000004 _impure_ptr
0001bf90 g     O .bss	00000004 alt_argc
00004c20 g     F .text	0000021c __sflush_r
000173d8 g     F .text	00000060 _do_dtors
00005da0 g     F .text	00000008 __locale_cjk_lang
0001a37a g     O .rwdata	00000002 OSEventMultiEn
00011018 g     F .text	00000248 OSFlagDel
0001bfe0 g     O .bss	00000004 OSEventFreeList
00000020 g       .exceptions	00000000 alt_irq_entry
00007830 g     F .text	00000064 __ulp
000114d4 g     F .text	000005b8 OSFlagPend
0001a3c6 g     O .rwdata	00000002 OSTmrEn
00005260 g     F .text	00000018 __fp_unlock_all
0001a340 g     O .rwdata	00000008 alt_fs_list
000104e8 g     F .text	00000074 OS_StrCopy
0001a390 g     O .rwdata	00000002 OSMemNameSize
00017cf8 g     F .text	00000020 OSInitHookEnd
00000020 g       *ABS*	00000000 __ram_exceptions_start
0001a3bc g     O .rwdata	00000002 OSTCBPrioTblMax
00005dcc g     F .text	0000000c localeconv
0001a3b8 g     O .rwdata	00000002 OSTaskStatStkChkEn
0000dd5c g     F .text	00000050 alt_ic_isr_register
0001a38c g     O .rwdata	00000002 OSMemEn
0001a396 g     O .rwdata	00000002 OSMutexEn
0001a3e4 g       *ABS*	00000000 _edata
000008bc g     F .text	00000054 _ZN9buttons_cC1Emmm
00022364 g       *ABS*	00000000 _end
0001bfe4 g     O .bss	00000001 OSIntNesting
00009ed8 g     F .text	00000164 __fputwc
000001c0 g       *ABS*	00000000 __ram_exceptions_end
000169e8 g     F .text	000000f0 altera_avalon_jtag_uart_ioctl
00015fcc g     F .text	000001d4 OSTimeDlyResume
00011388 g     F .text	0000014c OSFlagNameSet
00015814 g     F .text	000001c0 OSTaskStkChk
0000de34 g     F .text	0000008c alt_ic_irq_disable
0001a392 g     O .rwdata	00000002 OSMemSize
00008390 g     F .text	0000007c __swrite
00000000 g       *ABS*	00000000 __alt_mem_memory
0001a338 g     O .rwdata	00000004 __malloc_trim_threshold
000179e0 g     F .text	00000024 altera_nios2_qsys_irq_init
00005d94 g     F .text	0000000c __locale_msgcharset
0001bfe8 g     O .bss	00000004 OSTCBCur
00017ffc g     F .text	00000038 exit
0001a394 g     O .rwdata	00000002 OSMemTblSize
00005c38 g     F .text	000000c4 _fwalk_reent
00007634 g     F .text	000001fc __mdiff
00000ae4 g     F .text	00000074 .hidden __modsi3
00030000 g       *ABS*	00000000 __alt_data_end
00000020 g     F .exceptions	00000000 alt_exception
0000523c g     F .text	00000004 __sfp_lock_release
0000f2d4 g     F .text	00000058 OSInit
00015bb8 g     F .text	00000124 OSTaskQuery
00013ad8 g     F .text	000000a8 OS_QInit
0001055c g     F .text	00000054 OS_StrLen
000126d0 g     F .text	00000114 OSMemNameSet
0001a324 g     O .rwdata	00000002 highscore
0001a3ae g     O .rwdata	00000002 OSTaskProfileEn
0001bfec g     O .bss	00000004 OSTime
00020ac0 g     O .bss	00000800 OSTaskIdleStk
00018348 g     F .text	00000034 _exit
0001714c g     F .text	0000012c alt_alarm_start
00011260 g     F .text	00000128 OSFlagNameGet
000161a0 g     F .text	0000005c OSTimeGet
0000a590 g     F .text	0000010c .hidden __muldi3
00005dd8 g     F .text	000001bc __smakebuf_r
00000dd0 g     F .text	00000098 strlen
00017c78 g     F .text	00000020 OSTaskSwHook
000176e0 g     F .text	0000015c open
000212c0 g     O .bss	00000b40 OSEventTbl
0000c588 g     F .text	000000dc .hidden __gedf2
00021e00 g     O .bss	00000510 OSTCBTbl
000144e0 g     F .text	00000100 OSSemSet
0001a33c g     O .rwdata	00000004 __wctomb
00008648 g     F .text	00000018 __sprint_r
00017438 g     F .text	00000020 alt_icache_flush_all
0001a358 g     O .rwdata	00000004 alt_priority_mask
00013d08 g     F .text	00000240 OSSemDel
0001bff0 g     O .bss	00000004 OSFlagFreeList
0000ddac g     F .text	00000088 alt_ic_irq_enable
0001a374 g     O .rwdata	00000002 OSEventNameSize
00003144 g     F .text	0000001c __vfprintf_internal
0001bff4 g     O .bss	00000001 OSStatRdy
00022310 g     O .bss	00000054 OSTCBPrioTbl
0000a534 g     F .text	0000005c _wctomb_r
0000e754 g     F .text	000000c4 __env_lock
0001a3ba g     O .rwdata	00000002 OSTaskSwHookEn
0000cfc4 g     F .text	000008fc .hidden __subdf3
00006fd4 g     F .text	000000b0 __lo0bits
0001a3dc g     O .rwdata	00000008 alt_alarm_list
0001a382 g     O .rwdata	00000002 OSFlagWidth
00017378 g     F .text	00000060 _do_ctors
0000a444 g     F .text	000000c0 wcrtomb
0000db64 g     F .text	000000d8 close
0001bfa0 g     O .bss	00000004 alt_envsem
0001bff8 g     O .bss	00000004 OSIdleCtrRun
0000f918 g     F .text	00000020 OSVersion
0001a3cc g     O .rwdata	00000002 OSTmrCfgWheelSize
0000e14c g     F .text	00000084 alt_load
00015cdc g     F .text	00000070 OS_TaskStkClr
0001a3a6 g     O .rwdata	00000002 OSTaskCreateEn
0000ff08 g     F .text	00000068 OS_EventWaitListInit
0000a060 g     F .text	00000080 fputwc
00017d18 g     F .text	00000020 OSTaskIdleHook
00005240 g     F .text	00000004 __sinit_lock_acquire
00006d20 g     F .text	00000148 __multadd
000159d4 g     F .text	000001e4 OSTaskSuspend
00006cf8 g     F .text	00000028 _Bfree
000105b0 g     F .text	0000005c OS_TaskIdle
0001a3d2 g     O .rwdata	00000002 OSTmrTblSize
0001397c g     F .text	0000015c OSQQuery



Disassembly of section .entry:

00000000 <__reset>:
 * Jump to the _start entry point in the .text section if reset code
 * is allowed or if optimizing for RTL simulation.
 */
#if defined(ALT_ALLOW_CODE_AT_RESET) || defined(ALT_SIM_OPTIMIZE)
    /* Jump to the _start entry point in the .text section. */
    movhi r1, %hi(_start)
   0:	00400034 	movhi	at,0
    ori r1, r1, %lo(_start)
   4:	08407014 	ori	at,at,448
    jmp r1
   8:	0800683a 	jmp	at
	...

Disassembly of section .exceptions:

00000020 <alt_exception>:

#else /* ALT_EXCEPTION_STACK disabled */
        /* 
         * Reserve space on normal stack for registers about to be pushed.
         */
        addi  sp, sp, -76
  20:	deffed04 	addi	sp,sp,-76
         * documentation for details).
         *
         * Leave a gap in the stack frame at 4(sp) for the muldiv handler to
         * store zero into.
         */
        stw   ra,  0(sp)
  24:	dfc00015 	stw	ra,0(sp)
        stw   r1,   8(sp)
  28:	d8400215 	stw	at,8(sp)
        stw   r2,  12(sp)
  2c:	d8800315 	stw	r2,12(sp)
        stw   r3,  16(sp)
  30:	d8c00415 	stw	r3,16(sp)
        stw   r4,  20(sp)
  34:	d9000515 	stw	r4,20(sp)
        stw   r5,  24(sp)
  38:	d9400615 	stw	r5,24(sp)
        stw   r6,  28(sp)
  3c:	d9800715 	stw	r6,28(sp)
        stw   r7,  32(sp)
  40:	d9c00815 	stw	r7,32(sp)
        rdctl r5, estatus   /* Read early to avoid usage stall */
  44:	000b307a 	rdctl	r5,estatus
        stw   r8,  36(sp)
  48:	da000915 	stw	r8,36(sp)
        stw   r9,  40(sp)
  4c:	da400a15 	stw	r9,40(sp)
        stw   r10, 44(sp)
  50:	da800b15 	stw	r10,44(sp)
        stw   r11, 48(sp)
  54:	dac00c15 	stw	r11,48(sp)
        stw   r12, 52(sp)
  58:	db000d15 	stw	r12,52(sp)
        stw   r13, 56(sp)
  5c:	db400e15 	stw	r13,56(sp)
        stw   r14, 60(sp)
  60:	db800f15 	stw	r14,60(sp)
        stw   r15, 64(sp)
  64:	dbc01015 	stw	r15,64(sp)
        /*
         * ea-4 contains the address of the instruction being executed
         * when the exception occured. For interrupt exceptions, we will
         * will be re-issue the isntruction. Store it in 72(sp)
         */
        stw   r5,  68(sp)  /* estatus */
  68:	d9401115 	stw	r5,68(sp)
        addi  r15, ea, -4  /* instruction that caused exception */
  6c:	ebffff04 	addi	r15,ea,-4
        stw   r15,  72(sp)
  70:	dbc01215 	stw	r15,72(sp)
#else
        /*
         * Test to see if the exception was a software exception or caused 
         * by an external interrupt, and vector accordingly.
         */
        rdctl r4, ipending
  74:	0009313a 	rdctl	r4,ipending
        andi  r2, r5, 1
  78:	2880004c 	andi	r2,r5,1
        beq   r2, zero, .Lnot_irq
  7c:	10000326 	beq	r2,zero,8c <OSCtxSw_SWITCH_PC+0x4c>
        beq   r4, zero, .Lnot_irq
  80:	20000226 	beq	r4,zero,8c <OSCtxSw_SWITCH_PC+0x4c>
        /*
         * Now that all necessary registers have been preserved, call 
         * alt_irq_handler() to process the interrupts.
         */

        call alt_irq_handler
  84:	00000ec0 	call	ec <alt_irq_handler>

        .section .exceptions.irqreturn, "xa"

        br    .Lexception_exit
  88:	00000306 	br	98 <alt_exception_unknown+0x4>
         * upon completion, so we write ea (address of instruction *after*
         * the one where the exception occured) into 72(sp). The actual
         * instruction that caused the exception is written in r2, which these
         * handlers will utilize.
         */
        stw   ea,  72(sp)  /* Don't re-issue */
  8c:	df401215 	stw	ea,72(sp)
        ldw   r2, -4(ea)   /* Instruction that caused exception */
  90:	e8bfff17 	ldw	r2,-4(ea)

00000094 <alt_exception_unknown>:
#ifdef NIOS2_HAS_DEBUG_STUB
       /*
        *  Either tell the user now (if there is a debugger attached) or go into
        *  the debug monitor which will loop until a debugger is attached.
        */
        break
  94:	003da03a 	break	0
        /* 
         * Restore the saved registers, so that all general purpose registers 
         * have been restored to their state at the time the interrupt occured.
         */

        ldw   r5,  68(sp)
  98:	d9401117 	ldw	r5,68(sp)
        ldw   ea,  72(sp)  /* This becomes the PC once eret is executed */
  9c:	df401217 	ldw	ea,72(sp)
        ldw   ra,   0(sp)
  a0:	dfc00017 	ldw	ra,0(sp)

        wrctl estatus, r5
  a4:	2801707a 	wrctl	estatus,r5

        ldw   r1,   8(sp)
  a8:	d8400217 	ldw	at,8(sp)
        ldw   r2,  12(sp)
  ac:	d8800317 	ldw	r2,12(sp)
        ldw   r3,  16(sp)
  b0:	d8c00417 	ldw	r3,16(sp)
        ldw   r4,  20(sp)
  b4:	d9000517 	ldw	r4,20(sp)
        ldw   r5,  24(sp)
  b8:	d9400617 	ldw	r5,24(sp)
        ldw   r6,  28(sp)
  bc:	d9800717 	ldw	r6,28(sp)
        ldw   r7,  32(sp)
  c0:	d9c00817 	ldw	r7,32(sp)

#if defined(ALT_EXCEPTION_STACK) && defined(ALT_STACK_CHECK)
        ldw   et, %gprel(alt_exception_old_stack_limit)(gp)
#endif

        ldw   r8,  36(sp)
  c4:	da000917 	ldw	r8,36(sp)
        ldw   r9,  40(sp)
  c8:	da400a17 	ldw	r9,40(sp)
        ldw   r10, 44(sp)
  cc:	da800b17 	ldw	r10,44(sp)
        ldw   r11, 48(sp)
  d0:	dac00c17 	ldw	r11,48(sp)
        ldw   r12, 52(sp)
  d4:	db000d17 	ldw	r12,52(sp)
        ldw   r13, 56(sp)
  d8:	db400e17 	ldw	r13,56(sp)
        ldw   r14, 60(sp)
  dc:	db800f17 	ldw	r14,60(sp)
        ldw   r15, 64(sp)
  e0:	dbc01017 	ldw	r15,64(sp)
        stw   et, %gprel(alt_stack_limit_value)(gp)
        stw   zero, %gprel(alt_exception_old_stack_limit)(gp)
#endif /* ALT_STACK_CHECK */
        ldw   sp,  76(sp)
#else /* ALT_EXCEPTION_STACK disabled */
        addi  sp, sp, 76
  e4:	dec01304 	addi	sp,sp,76

        /*
         * Return to the interrupted instruction.
         */

        eret
  e8:	ef80083a 	eret

000000ec <alt_irq_handler>:
 * instruction is present if the macro ALT_CI_INTERRUPT_VECTOR defined.
 */

void alt_irq_handler (void) __attribute__ ((section (".exceptions")));
void alt_irq_handler (void)
{
  ec:	defff904 	addi	sp,sp,-28
  f0:	dfc00615 	stw	ra,24(sp)
  f4:	df000515 	stw	fp,20(sp)
  f8:	df000504 	addi	fp,sp,20
  
  /*
   * Notify the operating system that we are at interrupt level.
   */ 
  
  ALT_OS_INT_ENTER();
  fc:	000f32c0 	call	f32c <OSIntEnter>
#ifndef NIOS2_EIC_PRESENT
static ALT_INLINE alt_u32 ALT_ALWAYS_INLINE alt_irq_pending (void)
{
  alt_u32 active;

  NIOS2_READ_IPENDING (active);
 100:	0005313a 	rdctl	r2,ipending
 104:	e0bffe15 	stw	r2,-8(fp)

  return active;
 108:	e0bffe17 	ldw	r2,-8(fp)
   * Consider the case where the high priority interupt is asserted during
   * the interrupt entry sequence for a lower priority interrupt to see why
   * this is the case.
   */

  active = alt_irq_pending ();
 10c:	e0bffb15 	stw	r2,-20(fp)

  do
  {
    i = 0;
 110:	e03ffd15 	stw	zero,-12(fp)
    mask = 1;
 114:	00800044 	movi	r2,1
 118:	e0bffc15 	stw	r2,-16(fp)
     * called to clear the interrupt condition.
     */

    do
    {
      if (active & mask)
 11c:	e0fffb17 	ldw	r3,-20(fp)
 120:	e0bffc17 	ldw	r2,-16(fp)
 124:	1884703a 	and	r2,r3,r2
 128:	10001426 	beq	r2,zero,17c <alt_irq_handler+0x90>
      { 
#ifdef ALT_ENHANCED_INTERRUPT_API_PRESENT
        alt_irq[i].handler(alt_irq[i].context); 
 12c:	008000b4 	movhi	r2,2
 130:	10bc1004 	addi	r2,r2,-4032
 134:	e0fffd17 	ldw	r3,-12(fp)
 138:	180690fa 	slli	r3,r3,3
 13c:	10c5883a 	add	r2,r2,r3
 140:	10c00017 	ldw	r3,0(r2)
 144:	008000b4 	movhi	r2,2
 148:	10bc1004 	addi	r2,r2,-4032
 14c:	e13ffd17 	ldw	r4,-12(fp)
 150:	200890fa 	slli	r4,r4,3
 154:	1105883a 	add	r2,r2,r4
 158:	10800104 	addi	r2,r2,4
 15c:	10800017 	ldw	r2,0(r2)
 160:	1009883a 	mov	r4,r2
 164:	183ee83a 	callr	r3
#else
        alt_irq[i].handler(alt_irq[i].context, i); 
#endif
        break;
 168:	0001883a 	nop
#ifndef NIOS2_EIC_PRESENT
static ALT_INLINE alt_u32 ALT_ALWAYS_INLINE alt_irq_pending (void)
{
  alt_u32 active;

  NIOS2_READ_IPENDING (active);
 16c:	0005313a 	rdctl	r2,ipending
 170:	e0bfff15 	stw	r2,-4(fp)

  return active;
 174:	e0bfff17 	ldw	r2,-4(fp)
 178:	00000706 	br	198 <alt_irq_handler+0xac>
      }
      mask <<= 1;
 17c:	e0bffc17 	ldw	r2,-16(fp)
 180:	1085883a 	add	r2,r2,r2
 184:	e0bffc15 	stw	r2,-16(fp)
      i++;
 188:	e0bffd17 	ldw	r2,-12(fp)
 18c:	10800044 	addi	r2,r2,1
 190:	e0bffd15 	stw	r2,-12(fp)

    } while (1);
 194:	003fe106 	br	11c <__alt_data_end+0xfffd011c>

    active = alt_irq_pending ();
 198:	e0bffb15 	stw	r2,-20(fp)
    
  } while (active);
 19c:	e0bffb17 	ldw	r2,-20(fp)
 1a0:	103fdb1e 	bne	r2,zero,110 <__alt_data_end+0xfffd0110>

  /*
   * Notify the operating system that interrupt processing is complete.
   */ 

  ALT_OS_INT_EXIT();
 1a4:	000f3780 	call	f378 <OSIntExit>
}
 1a8:	0001883a 	nop
 1ac:	e037883a 	mov	sp,fp
 1b0:	dfc00117 	ldw	ra,4(sp)
 1b4:	df000017 	ldw	fp,0(sp)
 1b8:	dec00204 	addi	sp,sp,8
 1bc:	f800283a 	ret

Disassembly of section .text:

000001c0 <_start>:

    /*
     * Now that the caches are initialized, set up the stack pointer and global pointer.
     * The values provided by the linker are assumed to be correctly aligned.
     */
    movhi sp, %hi(__alt_stack_pointer)
     1c0:	06c000f4 	movhi	sp,3
    ori sp, sp, %lo(__alt_stack_pointer)
     1c4:	dec00014 	ori	sp,sp,0
    movhi gp, %hi(_gp)
     1c8:	068000b4 	movhi	gp,2
    ori gp, gp, %lo(_gp)
     1cc:	d688c914 	ori	gp,gp,8996
 */
#ifndef ALT_SIM_OPTIMIZE
    /* Log that the BSS is about to be cleared. */
    ALT_LOG_PUTS(alt_log_msg_bss)

    movhi r2, %hi(__bss_start)
     1d0:	00800074 	movhi	r2,1
    ori r2, r2, %lo(__bss_start)
     1d4:	10afd714 	ori	r2,r2,48988

    movhi r3, %hi(__bss_end)
     1d8:	00c000b4 	movhi	r3,2
    ori r3, r3, %lo(__bss_end)
     1dc:	18c8d914 	ori	r3,r3,9060

    beq r2, r3, 1f
     1e0:	10c00326 	beq	r2,r3,1f0 <_start+0x30>

0:
    stw zero, (r2)
     1e4:	10000015 	stw	zero,0(r2)
    addi r2, r2, 4
     1e8:	10800104 	addi	r2,r2,4
    bltu r2, r3, 0b
     1ec:	10fffd36 	bltu	r2,r3,1e4 <__alt_data_end+0xfffd01e4>
     * section aren't defined until alt_load() has been called).
     */
    mov   et, zero
#endif

    call alt_load
     1f0:	000e14c0 	call	e14c <alt_load>

    /* Log that alt_main is about to be called. */
    ALT_LOG_PUTS(alt_log_msg_alt_main)

    /* Call the C entry point. It should never return. */
    call alt_main
     1f4:	000e2e80 	call	e2e8 <alt_main>

000001f8 <alt_after_alt_main>:

    /* Wait in infinite loop in case alt_main does return. */
alt_after_alt_main:
    br alt_after_alt_main
     1f8:	003fff06 	br	1f8 <__alt_data_end+0xfffd01f8>

000001fc <_Z10show_scorej>:
OS_EVENT *running_sem, *start_sem, *stop_sem;
uint16_t highscore = UINT16_MAX;
uint8_t tries = 0;
enum states {IDLE, START, DELAY, COUNT, STOP};

void show_score(unsigned int score){
     1fc:	defffc04 	addi	sp,sp,-16
     200:	dfc00315 	stw	ra,12(sp)
     204:	df000215 	stw	fp,8(sp)
     208:	df000204 	addi	fp,sp,8
     20c:	e13fff15 	stw	r4,-4(fp)
	int data = score % 10;
     210:	e0bfff17 	ldw	r2,-4(fp)
     214:	01400284 	movi	r5,10
     218:	1009883a 	mov	r4,r2
     21c:	0000bbc0 	call	bbc <__umodsi3>
     220:	e0bffe15 	stw	r2,-8(fp)
	data |= (score / 10 % 10) << 4;
     224:	e0bfff17 	ldw	r2,-4(fp)
     228:	01400284 	movi	r5,10
     22c:	1009883a 	mov	r4,r2
     230:	0000b580 	call	b58 <__udivsi3>
     234:	01400284 	movi	r5,10
     238:	1009883a 	mov	r4,r2
     23c:	0000bbc0 	call	bbc <__umodsi3>
     240:	1006913a 	slli	r3,r2,4
     244:	e0bffe17 	ldw	r2,-8(fp)
     248:	1884b03a 	or	r2,r3,r2
     24c:	e0bffe15 	stw	r2,-8(fp)
	data |= (score / 100 % 10) << 8;
     250:	e0bfff17 	ldw	r2,-4(fp)
     254:	01401904 	movi	r5,100
     258:	1009883a 	mov	r4,r2
     25c:	0000b580 	call	b58 <__udivsi3>
     260:	01400284 	movi	r5,10
     264:	1009883a 	mov	r4,r2
     268:	0000bbc0 	call	bbc <__umodsi3>
     26c:	1006923a 	slli	r3,r2,8
     270:	e0bffe17 	ldw	r2,-8(fp)
     274:	1884b03a 	or	r2,r3,r2
     278:	e0bffe15 	stw	r2,-8(fp)
	data |= (score / 1000 % 10) << 12;
     27c:	e0bfff17 	ldw	r2,-4(fp)
     280:	0140fa04 	movi	r5,1000
     284:	1009883a 	mov	r4,r2
     288:	0000b580 	call	b58 <__udivsi3>
     28c:	01400284 	movi	r5,10
     290:	1009883a 	mov	r4,r2
     294:	0000bbc0 	call	bbc <__umodsi3>
     298:	1006933a 	slli	r3,r2,12
     29c:	e0bffe17 	ldw	r2,-8(fp)
     2a0:	1884b03a 	or	r2,r3,r2
     2a4:	e0bffe15 	stw	r2,-8(fp)
	IOWR_32DIRECT(REG32_AVALON_INTERFACE_0_BASE, 4, data);
     2a8:	00800134 	movhi	r2,4
     2ac:	10841104 	addi	r2,r2,4164
     2b0:	e0fffe17 	ldw	r3,-8(fp)
     2b4:	10c00035 	stwio	r3,0(r2)
}
     2b8:	0001883a 	nop
     2bc:	e037883a 	mov	sp,fp
     2c0:	dfc00117 	ldw	ra,4(sp)
     2c4:	df000017 	ldw	fp,0(sp)
     2c8:	dec00204 	addi	sp,sp,8
     2cc:	f800283a 	ret

000002d0 <_Z10show_triesj>:

void show_tries(unsigned int tries){
     2d0:	defffc04 	addi	sp,sp,-16
     2d4:	dfc00315 	stw	ra,12(sp)
     2d8:	df000215 	stw	fp,8(sp)
     2dc:	df000204 	addi	fp,sp,8
     2e0:	e13fff15 	stw	r4,-4(fp)
	int data = tries % 10;
     2e4:	e0bfff17 	ldw	r2,-4(fp)
     2e8:	01400284 	movi	r5,10
     2ec:	1009883a 	mov	r4,r2
     2f0:	0000bbc0 	call	bbc <__umodsi3>
     2f4:	e0bffe15 	stw	r2,-8(fp)
	data |= (tries / 10 % 10) << 4;
     2f8:	e0bfff17 	ldw	r2,-4(fp)
     2fc:	01400284 	movi	r5,10
     300:	1009883a 	mov	r4,r2
     304:	0000b580 	call	b58 <__udivsi3>
     308:	01400284 	movi	r5,10
     30c:	1009883a 	mov	r4,r2
     310:	0000bbc0 	call	bbc <__umodsi3>
     314:	1006913a 	slli	r3,r2,4
     318:	e0bffe17 	ldw	r2,-8(fp)
     31c:	1884b03a 	or	r2,r3,r2
     320:	e0bffe15 	stw	r2,-8(fp)
	IOWR_32DIRECT(REG32_AVALON_INTERFACE_0_BASE, 0, data);
     324:	00800134 	movhi	r2,4
     328:	10841004 	addi	r2,r2,4160
     32c:	e0fffe17 	ldw	r3,-8(fp)
     330:	10c00035 	stwio	r3,0(r2)
}
     334:	0001883a 	nop
     338:	e037883a 	mov	sp,fp
     33c:	dfc00117 	ldw	ra,4(sp)
     340:	df000017 	ldw	fp,0(sp)
     344:	dec00204 	addi	sp,sp,8
     348:	f800283a 	ret

0000034c <_Z10button_isrh>:

void button_isr(uint8_t pin){
     34c:	defffd04 	addi	sp,sp,-12
     350:	dfc00215 	stw	ra,8(sp)
     354:	df000115 	stw	fp,4(sp)
     358:	df000104 	addi	fp,sp,4
     35c:	2005883a 	mov	r2,r4
     360:	e0bfff05 	stb	r2,-4(fp)
	if(pin == START_KEY){
     364:	e0bfff03 	ldbu	r2,-4(fp)
     368:	10800058 	cmpnei	r2,r2,1
     36c:	1000041e 	bne	r2,zero,380 <_Z10button_isrh+0x34>
		OSSemPost(start_sem);
     370:	d0a70f17 	ldw	r2,-25540(gp)
     374:	1009883a 	mov	r4,r2
     378:	00142c00 	call	142c0 <OSSemPost>
	} else if(pin == RESP_KEY){
		OSSemPost(stop_sem);
	}
}
     37c:	00000606 	br	398 <_Z10button_isrh+0x4c>
}

void button_isr(uint8_t pin){
	if(pin == START_KEY){
		OSSemPost(start_sem);
	} else if(pin == RESP_KEY){
     380:	e0bfff03 	ldbu	r2,-4(fp)
     384:	10800098 	cmpnei	r2,r2,2
     388:	1000031e 	bne	r2,zero,398 <_Z10button_isrh+0x4c>
		OSSemPost(stop_sem);
     38c:	d0a71017 	ldw	r2,-25536(gp)
     390:	1009883a 	mov	r4,r2
     394:	00142c00 	call	142c0 <OSSemPost>
	}
}
     398:	0001883a 	nop
     39c:	e037883a 	mov	sp,fp
     3a0:	dfc00117 	ldw	ra,4(sp)
     3a4:	df000017 	ldw	fp,0(sp)
     3a8:	dec00204 	addi	sp,sp,8
     3ac:	f800283a 	ret

000003b0 <_Z11rotate_leftii>:

int rotate_left(int num, int shift){
     3b0:	defffd04 	addi	sp,sp,-12
     3b4:	df000215 	stw	fp,8(sp)
     3b8:	df000204 	addi	fp,sp,8
     3bc:	e13ffe15 	stw	r4,-8(fp)
     3c0:	e17fff15 	stw	r5,-4(fp)
    return (num << shift) | (num >> (9 - shift));
     3c4:	e0fffe17 	ldw	r3,-8(fp)
     3c8:	e0bfff17 	ldw	r2,-4(fp)
     3cc:	1886983a 	sll	r3,r3,r2
     3d0:	01000244 	movi	r4,9
     3d4:	e0bfff17 	ldw	r2,-4(fp)
     3d8:	2085c83a 	sub	r2,r4,r2
     3dc:	e13ffe17 	ldw	r4,-8(fp)
     3e0:	2085d83a 	sra	r2,r4,r2
     3e4:	1884b03a 	or	r2,r3,r2
}
     3e8:	e037883a 	mov	sp,fp
     3ec:	df000017 	ldw	fp,0(sp)
     3f0:	dec00104 	addi	sp,sp,4
     3f4:	f800283a 	ret

000003f8 <_Z14reaction_meterPv>:

// Task 1
void reaction_meter(void* pdata){
     3f8:	defff604 	addi	sp,sp,-40
     3fc:	dfc00915 	stw	ra,36(sp)
     400:	df000815 	stw	fp,32(sp)
     404:	df000804 	addi	fp,sp,32
     408:	e13fff15 	stw	r4,-4(fp)
	INT8U ret = OS_NO_ERR;
     40c:	e03ffe05 	stb	zero,-8(fp)
	enum states state = IDLE;
     410:	e03ff815 	stw	zero,-32(fp)
	uint16_t response_time;
	uint16_t leds = 0;
     414:	e03ff98d 	sth	zero,-26(fp)

	while (1){
		switch(state){
     418:	e0bff817 	ldw	r2,-32(fp)
     41c:	10c00168 	cmpgeui	r3,r2,5
     420:	183ffd1e 	bne	r3,zero,418 <__alt_data_end+0xfffd0418>
     424:	100690ba 	slli	r3,r2,2
     428:	00800034 	movhi	r2,0
     42c:	10810f04 	addi	r2,r2,1084
     430:	1885883a 	add	r2,r3,r2
     434:	10800017 	ldw	r2,0(r2)
     438:	1000683a 	jmp	r2
     43c:	00000450 	cmplti	zero,zero,17
     440:	000004cc 	andi	zero,zero,19
     444:	00000528 	cmpgeui	zero,zero,20
     448:	000005dc 	xori	zero,zero,23
     44c:	000006e0 	cmpeqi	zero,zero,27
		case IDLE: {
			if(highscore != UINT16_MAX){
     450:	d0a0000b 	ldhu	r2,-32768(gp)
     454:	10ffffcc 	andi	r3,r2,65535
     458:	00bfffd4 	movui	r2,65535
     45c:	18800526 	beq	r3,r2,474 <_Z14reaction_meterPv+0x7c>
				show_score(highscore);
     460:	d0a0000b 	ldhu	r2,-32768(gp)
     464:	10bfffcc 	andi	r2,r2,65535
     468:	1009883a 	mov	r4,r2
     46c:	00001fc0 	call	1fc <_Z10show_scorej>
     470:	00000206 	br	47c <_Z14reaction_meterPv+0x84>
			} else {
				show_score(0);
     474:	0009883a 	mov	r4,zero
     478:	00001fc0 	call	1fc <_Z10show_scorej>
			}
			show_tries(tries++);
     47c:	d0a71103 	ldbu	r2,-25532(gp)
     480:	10c00044 	addi	r3,r2,1
     484:	d0e71105 	stb	r3,-25532(gp)
     488:	10803fcc 	andi	r2,r2,255
     48c:	1009883a 	mov	r4,r2
     490:	00002d00 	call	2d0 <_Z10show_triesj>
			leds = 0;
     494:	e03ff98d 	sth	zero,-26(fp)
			IOWR_ALTERA_AVALON_PIO_DATA(LEDS_BASE, leds);
     498:	e0fff98b 	ldhu	r3,-26(fp)
     49c:	00800134 	movhi	r2,4
     4a0:	10840804 	addi	r2,r2,4128
     4a4:	10c00035 	stwio	r3,0(r2)
			OSSemPend(start_sem, 0, &ret);
     4a8:	d0a70f17 	ldw	r2,-25540(gp)
     4ac:	e0fffe04 	addi	r3,fp,-8
     4b0:	180d883a 	mov	r6,r3
     4b4:	000b883a 	mov	r5,zero
     4b8:	1009883a 	mov	r4,r2
     4bc:	0013f480 	call	13f48 <OSSemPend>
			state = START;
     4c0:	00800044 	movi	r2,1
     4c4:	e0bff815 	stw	r2,-32(fp)
			break;
     4c8:	0000ad06 	br	780 <_Z14reaction_meterPv+0x388>
		}
		case START: {
			show_score(0);
     4cc:	0009883a 	mov	r4,zero
     4d0:	00001fc0 	call	1fc <_Z10show_scorej>
			printf("Waiting for button to be released!\n");
     4d4:	010000b4 	movhi	r4,2
     4d8:	2120e004 	addi	r4,r4,-31872
     4dc:	0000d400 	call	d40 <puts>
			while(buttons.pressed(START_KEY)){
     4e0:	01400044 	movi	r5,1
     4e4:	010000b4 	movhi	r4,2
     4e8:	21300104 	addi	r4,r4,-16380
     4ec:	0000a200 	call	a20 <_ZN9buttons_c7pressedEh>
     4f0:	10803fcc 	andi	r2,r2,255
     4f4:	10000626 	beq	r2,zero,510 <_Z14reaction_meterPv+0x118>
				OSTimeDlyHMSM(0, 0, 0, 1);
     4f8:	01c00044 	movi	r7,1
     4fc:	000d883a 	mov	r6,zero
     500:	000b883a 	mov	r5,zero
     504:	0009883a 	mov	r4,zero
     508:	0015e500 	call	15e50 <OSTimeDlyHMSM>
			break;
		}
		case START: {
			show_score(0);
			printf("Waiting for button to be released!\n");
			while(buttons.pressed(START_KEY)){
     50c:	003ff406 	br	4e0 <__alt_data_end+0xfffd04e0>
				OSTimeDlyHMSM(0, 0, 0, 1);
			}
			printf("Button has been released!\n");
     510:	010000b4 	movhi	r4,2
     514:	2120e904 	addi	r4,r4,-31836
     518:	0000d400 	call	d40 <puts>
			state = DELAY;
     51c:	00800084 	movi	r2,2
     520:	e0bff815 	stw	r2,-32(fp)
			break;
     524:	00009606 	br	780 <_Z14reaction_meterPv+0x388>
		}
		case DELAY: {
			int32_t sys_time = OSTimeGet();
     528:	00161a00 	call	161a0 <OSTimeGet>
     52c:	e0bffc15 	stw	r2,-16(fp)
			srand(sys_time);
     530:	e0bffc17 	ldw	r2,-16(fp)
     534:	1009883a 	mov	r4,r2
     538:	0000d540 	call	d54 <srand>
			int delay = (rand() % MAX_RAND_DELAY) + MIN_RAND_DELAY;
     53c:	0000d6c0 	call	d6c <rand>
     540:	0141f404 	movi	r5,2000
     544:	1009883a 	mov	r4,r2
     548:	0000ae40 	call	ae4 <__modsi3>
     54c:	1080fa04 	addi	r2,r2,1000
     550:	e0bffd15 	stw	r2,-12(fp)
			printf("Starting random delay of %ims.\n", delay);
     554:	e17ffd17 	ldw	r5,-12(fp)
     558:	010000b4 	movhi	r4,2
     55c:	2120f004 	addi	r4,r4,-31808
     560:	0000c440 	call	c44 <printf>
			OSTimeDly(delay);
     564:	e0bffd17 	ldw	r2,-12(fp)
     568:	10bfffcc 	andi	r2,r2,65535
     56c:	1009883a 	mov	r4,r2
     570:	0015d4c0 	call	15d4c <OSTimeDly>
			while(buttons.pressed(RESP_KEY)){
     574:	01400084 	movi	r5,2
     578:	010000b4 	movhi	r4,2
     57c:	21300104 	addi	r4,r4,-16380
     580:	0000a200 	call	a20 <_ZN9buttons_c7pressedEh>
     584:	10803fcc 	andi	r2,r2,255
     588:	10001126 	beq	r2,zero,5d0 <_Z14reaction_meterPv+0x1d8>
				printf("Cheat prevention kicking in...\n");
     58c:	010000b4 	movhi	r4,2
     590:	2120f804 	addi	r4,r4,-31776
     594:	0000d400 	call	d40 <puts>
				OSSemSet(stop_sem, 0, &ret);		// Reset semaphore.
     598:	d0a71017 	ldw	r2,-25536(gp)
     59c:	e0fffe04 	addi	r3,fp,-8
     5a0:	180d883a 	mov	r6,r3
     5a4:	000b883a 	mov	r5,zero
     5a8:	1009883a 	mov	r4,r2
     5ac:	00144e00 	call	144e0 <OSSemSet>
				OSTimeDlyHMSM(0, 0, 0, delay);
     5b0:	e0bffd17 	ldw	r2,-12(fp)
     5b4:	10bfffcc 	andi	r2,r2,65535
     5b8:	100f883a 	mov	r7,r2
     5bc:	000d883a 	mov	r6,zero
     5c0:	000b883a 	mov	r5,zero
     5c4:	0009883a 	mov	r4,zero
     5c8:	0015e500 	call	15e50 <OSTimeDlyHMSM>
			int32_t sys_time = OSTimeGet();
			srand(sys_time);
			int delay = (rand() % MAX_RAND_DELAY) + MIN_RAND_DELAY;
			printf("Starting random delay of %ims.\n", delay);
			OSTimeDly(delay);
			while(buttons.pressed(RESP_KEY)){
     5cc:	003fe906 	br	574 <__alt_data_end+0xfffd0574>
				printf("Cheat prevention kicking in...\n");
				OSSemSet(stop_sem, 0, &ret);		// Reset semaphore.
				OSTimeDlyHMSM(0, 0, 0, delay);
			}
			state = COUNT;
     5d0:	008000c4 	movi	r2,3
     5d4:	e0bff815 	stw	r2,-32(fp)
			break;
     5d8:	00006906 	br	780 <_Z14reaction_meterPv+0x388>
		}
		case COUNT: {
			enum states next_state = IDLE;
     5dc:	e03ffa15 	stw	zero,-24(fp)
			for(uint16_t time = 0; time < RESP_TIMEOUT; time++){
     5e0:	e03ffb0d 	sth	zero,-20(fp)
     5e4:	e0bffb0b 	ldhu	r2,-20(fp)
     5e8:	1081f428 	cmpgeui	r2,r2,2000
     5ec:	1000391e 	bne	r2,zero,6d4 <_Z14reaction_meterPv+0x2dc>
				show_score(time);
     5f0:	e0bffb0b 	ldhu	r2,-20(fp)
     5f4:	1009883a 	mov	r4,r2
     5f8:	00001fc0 	call	1fc <_Z10show_scorej>
				if(time % (RESP_TIMEOUT / LED_AMT) == 0){
     5fc:	e0bffb0b 	ldhu	r2,-20(fp)
     600:	01403204 	movi	r5,200
     604:	1009883a 	mov	r4,r2
     608:	0000bbc0 	call	bbc <__umodsi3>
     60c:	10bfffcc 	andi	r2,r2,65535
     610:	10000f1e 	bne	r2,zero,650 <_Z14reaction_meterPv+0x258>
					leds |= 1UL << time / (RESP_TIMEOUT / LED_AMT);
     614:	e0bffb0b 	ldhu	r2,-20(fp)
     618:	01403204 	movi	r5,200
     61c:	1009883a 	mov	r4,r2
     620:	0000b580 	call	b58 <__udivsi3>
     624:	10bfffcc 	andi	r2,r2,65535
     628:	00c00044 	movi	r3,1
     62c:	1884983a 	sll	r2,r3,r2
     630:	1007883a 	mov	r3,r2
     634:	e0bff98b 	ldhu	r2,-26(fp)
     638:	1884b03a 	or	r2,r3,r2
     63c:	e0bff98d 	sth	r2,-26(fp)
					IOWR_ALTERA_AVALON_PIO_DATA(LEDS_BASE, leds);
     640:	e0fff98b 	ldhu	r3,-26(fp)
     644:	00800134 	movhi	r2,4
     648:	10840804 	addi	r2,r2,4128
     64c:	10c00035 	stwio	r3,0(r2)
				}
				OSSemPend(stop_sem, 1, &ret); 	// Wait 1ms at max.
     650:	d0a71017 	ldw	r2,-25536(gp)
     654:	e0fffe04 	addi	r3,fp,-8
     658:	180d883a 	mov	r6,r3
     65c:	01400044 	movi	r5,1
     660:	1009883a 	mov	r4,r2
     664:	0013f480 	call	13f48 <OSSemPend>
				if(ret != OS_TIMEOUT){
     668:	e0bffe03 	ldbu	r2,-8(fp)
     66c:	10803fcc 	andi	r2,r2,255
     670:	108002a0 	cmpeqi	r2,r2,10
     674:	1000131e 	bne	r2,zero,6c4 <_Z14reaction_meterPv+0x2cc>
					if(time < 80){
     678:	e0bffb0b 	ldhu	r2,-20(fp)
     67c:	10801428 	cmpgeui	r2,r2,80
     680:	1000061e 	bne	r2,zero,69c <_Z14reaction_meterPv+0x2a4>
						printf("Impossible response-time of %ims detected; invalid!\n", time);
     684:	e0bffb0b 	ldhu	r2,-20(fp)
     688:	100b883a 	mov	r5,r2
     68c:	010000b4 	movhi	r4,2
     690:	21210004 	addi	r4,r4,-31744
     694:	0000c440 	call	c44 <printf>
					} else {
						printf("Responded within %ims!\n", time);
						response_time = time;
						next_state = STOP;
					}
					break;
     698:	00000e06 	br	6d4 <_Z14reaction_meterPv+0x2dc>
				OSSemPend(stop_sem, 1, &ret); 	// Wait 1ms at max.
				if(ret != OS_TIMEOUT){
					if(time < 80){
						printf("Impossible response-time of %ims detected; invalid!\n", time);
					} else {
						printf("Responded within %ims!\n", time);
     69c:	e0bffb0b 	ldhu	r2,-20(fp)
     6a0:	100b883a 	mov	r5,r2
     6a4:	010000b4 	movhi	r4,2
     6a8:	21210e04 	addi	r4,r4,-31688
     6ac:	0000c440 	call	c44 <printf>
						response_time = time;
     6b0:	e0bffb0b 	ldhu	r2,-20(fp)
     6b4:	e0bff90d 	sth	r2,-28(fp)
						next_state = STOP;
     6b8:	00800104 	movi	r2,4
     6bc:	e0bffa15 	stw	r2,-24(fp)
					}
					break;
     6c0:	00000406 	br	6d4 <_Z14reaction_meterPv+0x2dc>
			state = COUNT;
			break;
		}
		case COUNT: {
			enum states next_state = IDLE;
			for(uint16_t time = 0; time < RESP_TIMEOUT; time++){
     6c4:	e0bffb0b 	ldhu	r2,-20(fp)
     6c8:	10800044 	addi	r2,r2,1
     6cc:	e0bffb0d 	sth	r2,-20(fp)
     6d0:	003fc406 	br	5e4 <__alt_data_end+0xfffd05e4>
						next_state = STOP;
					}
					break;
				}
			}
			state = next_state;
     6d4:	e0bffa17 	ldw	r2,-24(fp)
     6d8:	e0bff815 	stw	r2,-32(fp)
			break;
     6dc:	00002806 	br	780 <_Z14reaction_meterPv+0x388>
		}
		case STOP: {
			bool new_highscore = false;
     6e0:	e03ffb85 	stb	zero,-18(fp)
			if(response_time < highscore){
     6e4:	d0a0000b 	ldhu	r2,-32768(gp)
     6e8:	e0fff90b 	ldhu	r3,-28(fp)
     6ec:	10bfffcc 	andi	r2,r2,65535
     6f0:	1880042e 	bgeu	r3,r2,704 <_Z14reaction_meterPv+0x30c>
				highscore = response_time;
     6f4:	e0bff90b 	ldhu	r2,-28(fp)
     6f8:	d0a0000d 	sth	r2,-32768(gp)
				new_highscore = true;
     6fc:	00800044 	movi	r2,1
     700:	e0bffb85 	stb	r2,-18(fp)
			}
			printf("Waiting for button to be released!\n");
     704:	010000b4 	movhi	r4,2
     708:	2120e004 	addi	r4,r4,-31872
     70c:	0000d400 	call	d40 <puts>
			while(buttons.pressed(RESP_KEY)){
     710:	01400084 	movi	r5,2
     714:	010000b4 	movhi	r4,2
     718:	21300104 	addi	r4,r4,-16380
     71c:	0000a200 	call	a20 <_ZN9buttons_c7pressedEh>
     720:	10803fcc 	andi	r2,r2,255
     724:	10001126 	beq	r2,zero,76c <_Z14reaction_meterPv+0x374>
				OSTimeDlyHMSM(0, 0, 0, 100);
     728:	01c01904 	movi	r7,100
     72c:	000d883a 	mov	r6,zero
     730:	000b883a 	mov	r5,zero
     734:	0009883a 	mov	r4,zero
     738:	0015e500 	call	15e50 <OSTimeDlyHMSM>
				if(new_highscore){
     73c:	e0bffb83 	ldbu	r2,-18(fp)
     740:	103ff326 	beq	r2,zero,710 <__alt_data_end+0xfffd0710>
					leds = rotate_left(leds, 1);
     744:	e0bff98b 	ldhu	r2,-26(fp)
     748:	01400044 	movi	r5,1
     74c:	1009883a 	mov	r4,r2
     750:	00003b00 	call	3b0 <_Z11rotate_leftii>
     754:	e0bff98d 	sth	r2,-26(fp)
					IOWR_ALTERA_AVALON_PIO_DATA(LEDS_BASE, leds);
     758:	e0fff98b 	ldhu	r3,-26(fp)
     75c:	00800134 	movhi	r2,4
     760:	10840804 	addi	r2,r2,4128
     764:	10c00035 	stwio	r3,0(r2)
			if(response_time < highscore){
				highscore = response_time;
				new_highscore = true;
			}
			printf("Waiting for button to be released!\n");
			while(buttons.pressed(RESP_KEY)){
     768:	003fe906 	br	710 <__alt_data_end+0xfffd0710>
				if(new_highscore){
					leds = rotate_left(leds, 1);
					IOWR_ALTERA_AVALON_PIO_DATA(LEDS_BASE, leds);
				}
			}
			printf("Button has been released!\n");
     76c:	010000b4 	movhi	r4,2
     770:	2120e904 	addi	r4,r4,-31836
     774:	0000d400 	call	d40 <puts>
			state = IDLE;
     778:	e03ff815 	stw	zero,-32(fp)
			break;
     77c:	0001883a 	nop
	INT8U ret = OS_NO_ERR;
	enum states state = IDLE;
	uint16_t response_time;
	uint16_t leds = 0;

	while (1){
     780:	003f2506 	br	418 <__alt_data_end+0xfffd0418>

00000784 <main>:
		}
		}
	}
}

int main(void){
     784:	defff904 	addi	sp,sp,-28
     788:	dfc00615 	stw	ra,24(sp)
     78c:	df000515 	stw	fp,20(sp)
     790:	df000504 	addi	fp,sp,20

	running_sem = OSSemCreate(0);
     794:	0009883a 	mov	r4,zero
     798:	0013c300 	call	13c30 <OSSemCreate>
     79c:	d0a70e15 	stw	r2,-25544(gp)
	start_sem = OSSemCreate(0);
     7a0:	0009883a 	mov	r4,zero
     7a4:	0013c300 	call	13c30 <OSSemCreate>
     7a8:	d0a70f15 	stw	r2,-25540(gp)
	stop_sem = OSSemCreate(0);
     7ac:	0009883a 	mov	r4,zero
     7b0:	0013c300 	call	13c30 <OSSemCreate>
     7b4:	d0a71015 	stw	r2,-25536(gp)

	buttons.init(button_isr);
     7b8:	01400034 	movhi	r5,0
     7bc:	2940d304 	addi	r5,r5,844
     7c0:	010000b4 	movhi	r4,2
     7c4:	21300104 	addi	r4,r4,-16380
     7c8:	000098c0 	call	98c <_ZN9buttons_c4initEPFvhE>
                  TASK1_PRIORITY,
                  TASK1_PRIORITY,
                  task1_stk,
                  TASK_STACKSIZE,
                  NULL,
                  0);
     7cc:	d8000415 	stw	zero,16(sp)
     7d0:	d8000315 	stw	zero,12(sp)
     7d4:	00810004 	movi	r2,1024
     7d8:	d8800215 	stw	r2,8(sp)
     7dc:	008000b4 	movhi	r2,2
     7e0:	10b00604 	addi	r2,r2,-16360
     7e4:	d8800115 	stw	r2,4(sp)
     7e8:	00800044 	movi	r2,1
     7ec:	d8800015 	stw	r2,0(sp)
     7f0:	01c00044 	movi	r7,1
     7f4:	018000b4 	movhi	r6,2
     7f8:	31b40504 	addi	r6,r6,-12268
     7fc:	000b883a 	mov	r5,zero
     800:	01000034 	movhi	r4,0
     804:	2100fe04 	addi	r4,r4,1016
     808:	0014c7c0 	call	14c7c <OSTaskCreateExt>

	OSStart();
     80c:	000f5d80 	call	f5d8 <OSStart>
	return 0;
     810:	0005883a 	mov	r2,zero
}
     814:	e037883a 	mov	sp,fp
     818:	dfc00117 	ldw	ra,4(sp)
     81c:	df000017 	ldw	fp,0(sp)
     820:	dec00204 	addi	sp,sp,8
     824:	f800283a 	ret

00000828 <_Z41__static_initialization_and_destruction_0ii>:
     828:	defffc04 	addi	sp,sp,-16
     82c:	dfc00315 	stw	ra,12(sp)
     830:	df000215 	stw	fp,8(sp)
     834:	df000204 	addi	fp,sp,8
     838:	e13ffe15 	stw	r4,-8(fp)
     83c:	e17fff15 	stw	r5,-4(fp)
     840:	e0bffe17 	ldw	r2,-8(fp)
     844:	10800058 	cmpnei	r2,r2,1
     848:	10000a1e 	bne	r2,zero,874 <_Z41__static_initialization_and_destruction_0ii+0x4c>
     84c:	e0ffff17 	ldw	r3,-4(fp)
     850:	00bfffd4 	movui	r2,65535
     854:	1880071e 	bne	r3,r2,874 <_Z41__static_initialization_and_destruction_0ii+0x4c>
#include "includes.h"
#include <altera_avalon_pio_regs.h>

#include "src/button.hpp"

buttons_c buttons(BUTTONS_BASE, BUTTONS_IRQ_INTERRUPT_CONTROLLER_ID, BUTTONS_IRQ);
     858:	01c00084 	movi	r7,2
     85c:	000d883a 	mov	r6,zero
     860:	01400134 	movhi	r5,4
     864:	29440c04 	addi	r5,r5,4144
     868:	010000b4 	movhi	r4,2
     86c:	21300104 	addi	r4,r4,-16380
     870:	00008bc0 	call	8bc <_ZN9buttons_cC1Emmm>
                  NULL,
                  0);

	OSStart();
	return 0;
}
     874:	0001883a 	nop
     878:	e037883a 	mov	sp,fp
     87c:	dfc00117 	ldw	ra,4(sp)
     880:	df000017 	ldw	fp,0(sp)
     884:	dec00204 	addi	sp,sp,8
     888:	f800283a 	ret

0000088c <_GLOBAL__sub_I_buttons>:
     88c:	defffe04 	addi	sp,sp,-8
     890:	dfc00115 	stw	ra,4(sp)
     894:	df000015 	stw	fp,0(sp)
     898:	d839883a 	mov	fp,sp
     89c:	017fffd4 	movui	r5,65535
     8a0:	01000044 	movi	r4,1
     8a4:	00008280 	call	828 <_Z41__static_initialization_and_destruction_0ii>
     8a8:	e037883a 	mov	sp,fp
     8ac:	dfc00117 	ldw	ra,4(sp)
     8b0:	df000017 	ldw	fp,0(sp)
     8b4:	dec00204 	addi	sp,sp,8
     8b8:	f800283a 	ret

000008bc <_ZN9buttons_cC1Emmm>:
#include "button.hpp"

#include <sys/alt_irq.h>
#include <altera_avalon_pio_regs.h>

buttons_c::buttons_c(const uint32_t base_address, const uint32_t interrupt_controller, const uint32_t irq_id):
     8bc:	defffb04 	addi	sp,sp,-20
     8c0:	df000415 	stw	fp,16(sp)
     8c4:	df000404 	addi	fp,sp,16
     8c8:	e13ffc15 	stw	r4,-16(fp)
     8cc:	e17ffd15 	stw	r5,-12(fp)
     8d0:	e1bffe15 	stw	r6,-8(fp)
     8d4:	e1ffff15 	stw	r7,-4(fp)
	base_address(base_address),
	interrupt_controller(interrupt_controller),
	irq_id(irq_id)
     8d8:	e0bffc17 	ldw	r2,-16(fp)
     8dc:	e0fffd17 	ldw	r3,-12(fp)
     8e0:	10c00015 	stw	r3,0(r2)
     8e4:	e0bffc17 	ldw	r2,-16(fp)
     8e8:	e0fffe17 	ldw	r3,-8(fp)
     8ec:	10c00115 	stw	r3,4(r2)
     8f0:	e0bffc17 	ldw	r2,-16(fp)
     8f4:	e0ffff17 	ldw	r3,-4(fp)
     8f8:	10c00215 	stw	r3,8(r2)
{}
     8fc:	0001883a 	nop
     900:	e037883a 	mov	sp,fp
     904:	df000017 	ldw	fp,0(sp)
     908:	dec00104 	addi	sp,sp,4
     90c:	f800283a 	ret

00000910 <_ZN9buttons_c3isrEPv>:

void buttons_c::isr(void* isr_context){
     910:	defffc04 	addi	sp,sp,-16
     914:	dfc00315 	stw	ra,12(sp)
     918:	df000215 	stw	fp,8(sp)
     91c:	df000204 	addi	fp,sp,8
     920:	e13fff15 	stw	r4,-4(fp)
	buttons_c* buttons = (buttons_c*)isr_context;
     924:	e0bfff17 	ldw	r2,-4(fp)
     928:	e0bffe15 	stw	r2,-8(fp)
	buttons->edge_capture = IORD_ALTERA_AVALON_PIO_EDGE_CAP(buttons->base_address);
     92c:	e0bffe17 	ldw	r2,-8(fp)
     930:	10800017 	ldw	r2,0(r2)
     934:	10800304 	addi	r2,r2,12
     938:	10c00037 	ldwio	r3,0(r2)
     93c:	e0bffe17 	ldw	r2,-8(fp)
     940:	10c00315 	stw	r3,12(r2)
	IOWR_ALTERA_AVALON_PIO_EDGE_CAP(buttons->base_address, 0x0);
     944:	e0bffe17 	ldw	r2,-8(fp)
     948:	10800017 	ldw	r2,0(r2)
     94c:	10800304 	addi	r2,r2,12
     950:	0007883a 	mov	r3,zero
     954:	10c00035 	stwio	r3,0(r2)
	buttons->m_callback(buttons->edge_capture);
     958:	e0bffe17 	ldw	r2,-8(fp)
     95c:	10800417 	ldw	r2,16(r2)
     960:	e0fffe17 	ldw	r3,-8(fp)
     964:	18c00317 	ldw	r3,12(r3)
     968:	18c03fcc 	andi	r3,r3,255
     96c:	1809883a 	mov	r4,r3
     970:	103ee83a 	callr	r2
}
     974:	0001883a 	nop
     978:	e037883a 	mov	sp,fp
     97c:	dfc00117 	ldw	ra,4(sp)
     980:	df000017 	ldw	fp,0(sp)
     984:	dec00204 	addi	sp,sp,8
     988:	f800283a 	ret

0000098c <_ZN9buttons_c4initEPFvhE>:

void buttons_c::init(void (*callback)(uint8_t pin)){
     98c:	defffb04 	addi	sp,sp,-20
     990:	dfc00415 	stw	ra,16(sp)
     994:	df000315 	stw	fp,12(sp)
     998:	df000304 	addi	fp,sp,12
     99c:	e13ffe15 	stw	r4,-8(fp)
     9a0:	e17fff15 	stw	r5,-4(fp)
	m_callback = callback;
     9a4:	e0bffe17 	ldw	r2,-8(fp)
     9a8:	e0ffff17 	ldw	r3,-4(fp)
     9ac:	10c00415 	stw	r3,16(r2)
	IOWR_ALTERA_AVALON_PIO_IRQ_MASK(base_address, 0xF);
     9b0:	e0bffe17 	ldw	r2,-8(fp)
     9b4:	10800017 	ldw	r2,0(r2)
     9b8:	10800204 	addi	r2,r2,8
     9bc:	1007883a 	mov	r3,r2
     9c0:	008003c4 	movi	r2,15
     9c4:	18800035 	stwio	r2,0(r3)
	IOWR_ALTERA_AVALON_PIO_EDGE_CAP(base_address, 0x0);
     9c8:	e0bffe17 	ldw	r2,-8(fp)
     9cc:	10800017 	ldw	r2,0(r2)
     9d0:	10800304 	addi	r2,r2,12
     9d4:	0007883a 	mov	r3,zero
     9d8:	10c00035 	stwio	r3,0(r2)
	alt_ic_isr_register(interrupt_controller, irq_id, isr, this, 0x0);
     9dc:	e0bffe17 	ldw	r2,-8(fp)
     9e0:	10c00117 	ldw	r3,4(r2)
     9e4:	e0bffe17 	ldw	r2,-8(fp)
     9e8:	10800217 	ldw	r2,8(r2)
     9ec:	d8000015 	stw	zero,0(sp)
     9f0:	e1fffe17 	ldw	r7,-8(fp)
     9f4:	01800034 	movhi	r6,0
     9f8:	31824404 	addi	r6,r6,2320
     9fc:	100b883a 	mov	r5,r2
     a00:	1809883a 	mov	r4,r3
     a04:	000dd5c0 	call	dd5c <alt_ic_isr_register>
}
     a08:	0001883a 	nop
     a0c:	e037883a 	mov	sp,fp
     a10:	dfc00117 	ldw	ra,4(sp)
     a14:	df000017 	ldw	fp,0(sp)
     a18:	dec00204 	addi	sp,sp,8
     a1c:	f800283a 	ret

00000a20 <_ZN9buttons_c7pressedEh>:

bool buttons_c::pressed(const uint8_t pin){
     a20:	defffd04 	addi	sp,sp,-12
     a24:	df000215 	stw	fp,8(sp)
     a28:	df000204 	addi	fp,sp,8
     a2c:	e13ffe15 	stw	r4,-8(fp)
     a30:	2805883a 	mov	r2,r5
     a34:	e0bfff05 	stb	r2,-4(fp)
	return (IORD_ALTERA_AVALON_PIO_DATA(base_address) & pin) == 0;
     a38:	e0bffe17 	ldw	r2,-8(fp)
     a3c:	10800017 	ldw	r2,0(r2)
     a40:	10c00037 	ldwio	r3,0(r2)
     a44:	e0bfff03 	ldbu	r2,-4(fp)
     a48:	1884703a 	and	r2,r3,r2
     a4c:	1005003a 	cmpeq	r2,r2,zero
}
     a50:	e037883a 	mov	sp,fp
     a54:	df000017 	ldw	fp,0(sp)
     a58:	dec00104 	addi	sp,sp,4
     a5c:	f800283a 	ret

00000a60 <__divsi3>:
     a60:	20001b16 	blt	r4,zero,ad0 <__divsi3+0x70>
     a64:	000f883a 	mov	r7,zero
     a68:	28001616 	blt	r5,zero,ac4 <__divsi3+0x64>
     a6c:	200d883a 	mov	r6,r4
     a70:	29001a2e 	bgeu	r5,r4,adc <__divsi3+0x7c>
     a74:	00800804 	movi	r2,32
     a78:	00c00044 	movi	r3,1
     a7c:	00000106 	br	a84 <__divsi3+0x24>
     a80:	10000d26 	beq	r2,zero,ab8 <__divsi3+0x58>
     a84:	294b883a 	add	r5,r5,r5
     a88:	10bfffc4 	addi	r2,r2,-1
     a8c:	18c7883a 	add	r3,r3,r3
     a90:	293ffb36 	bltu	r5,r4,a80 <__alt_data_end+0xfffd0a80>
     a94:	0005883a 	mov	r2,zero
     a98:	18000726 	beq	r3,zero,ab8 <__divsi3+0x58>
     a9c:	0005883a 	mov	r2,zero
     aa0:	31400236 	bltu	r6,r5,aac <__divsi3+0x4c>
     aa4:	314dc83a 	sub	r6,r6,r5
     aa8:	10c4b03a 	or	r2,r2,r3
     aac:	1806d07a 	srli	r3,r3,1
     ab0:	280ad07a 	srli	r5,r5,1
     ab4:	183ffa1e 	bne	r3,zero,aa0 <__alt_data_end+0xfffd0aa0>
     ab8:	38000126 	beq	r7,zero,ac0 <__divsi3+0x60>
     abc:	0085c83a 	sub	r2,zero,r2
     ac0:	f800283a 	ret
     ac4:	014bc83a 	sub	r5,zero,r5
     ac8:	39c0005c 	xori	r7,r7,1
     acc:	003fe706 	br	a6c <__alt_data_end+0xfffd0a6c>
     ad0:	0109c83a 	sub	r4,zero,r4
     ad4:	01c00044 	movi	r7,1
     ad8:	003fe306 	br	a68 <__alt_data_end+0xfffd0a68>
     adc:	00c00044 	movi	r3,1
     ae0:	003fee06 	br	a9c <__alt_data_end+0xfffd0a9c>

00000ae4 <__modsi3>:
     ae4:	20001716 	blt	r4,zero,b44 <__modsi3+0x60>
     ae8:	000f883a 	mov	r7,zero
     aec:	2005883a 	mov	r2,r4
     af0:	28001216 	blt	r5,zero,b3c <__modsi3+0x58>
     af4:	2900162e 	bgeu	r5,r4,b50 <__modsi3+0x6c>
     af8:	01800804 	movi	r6,32
     afc:	00c00044 	movi	r3,1
     b00:	00000106 	br	b08 <__modsi3+0x24>
     b04:	30000a26 	beq	r6,zero,b30 <__modsi3+0x4c>
     b08:	294b883a 	add	r5,r5,r5
     b0c:	31bfffc4 	addi	r6,r6,-1
     b10:	18c7883a 	add	r3,r3,r3
     b14:	293ffb36 	bltu	r5,r4,b04 <__alt_data_end+0xfffd0b04>
     b18:	18000526 	beq	r3,zero,b30 <__modsi3+0x4c>
     b1c:	1806d07a 	srli	r3,r3,1
     b20:	11400136 	bltu	r2,r5,b28 <__modsi3+0x44>
     b24:	1145c83a 	sub	r2,r2,r5
     b28:	280ad07a 	srli	r5,r5,1
     b2c:	183ffb1e 	bne	r3,zero,b1c <__alt_data_end+0xfffd0b1c>
     b30:	38000126 	beq	r7,zero,b38 <__modsi3+0x54>
     b34:	0085c83a 	sub	r2,zero,r2
     b38:	f800283a 	ret
     b3c:	014bc83a 	sub	r5,zero,r5
     b40:	003fec06 	br	af4 <__alt_data_end+0xfffd0af4>
     b44:	0109c83a 	sub	r4,zero,r4
     b48:	01c00044 	movi	r7,1
     b4c:	003fe706 	br	aec <__alt_data_end+0xfffd0aec>
     b50:	00c00044 	movi	r3,1
     b54:	003ff106 	br	b1c <__alt_data_end+0xfffd0b1c>

00000b58 <__udivsi3>:
     b58:	200d883a 	mov	r6,r4
     b5c:	2900152e 	bgeu	r5,r4,bb4 <__udivsi3+0x5c>
     b60:	28001416 	blt	r5,zero,bb4 <__udivsi3+0x5c>
     b64:	00800804 	movi	r2,32
     b68:	00c00044 	movi	r3,1
     b6c:	00000206 	br	b78 <__udivsi3+0x20>
     b70:	10000e26 	beq	r2,zero,bac <__udivsi3+0x54>
     b74:	28000516 	blt	r5,zero,b8c <__udivsi3+0x34>
     b78:	294b883a 	add	r5,r5,r5
     b7c:	10bfffc4 	addi	r2,r2,-1
     b80:	18c7883a 	add	r3,r3,r3
     b84:	293ffa36 	bltu	r5,r4,b70 <__alt_data_end+0xfffd0b70>
     b88:	18000826 	beq	r3,zero,bac <__udivsi3+0x54>
     b8c:	0005883a 	mov	r2,zero
     b90:	31400236 	bltu	r6,r5,b9c <__udivsi3+0x44>
     b94:	314dc83a 	sub	r6,r6,r5
     b98:	10c4b03a 	or	r2,r2,r3
     b9c:	1806d07a 	srli	r3,r3,1
     ba0:	280ad07a 	srli	r5,r5,1
     ba4:	183ffa1e 	bne	r3,zero,b90 <__alt_data_end+0xfffd0b90>
     ba8:	f800283a 	ret
     bac:	0005883a 	mov	r2,zero
     bb0:	f800283a 	ret
     bb4:	00c00044 	movi	r3,1
     bb8:	003ff406 	br	b8c <__alt_data_end+0xfffd0b8c>

00000bbc <__umodsi3>:
     bbc:	2005883a 	mov	r2,r4
     bc0:	2900122e 	bgeu	r5,r4,c0c <__umodsi3+0x50>
     bc4:	28001116 	blt	r5,zero,c0c <__umodsi3+0x50>
     bc8:	01800804 	movi	r6,32
     bcc:	00c00044 	movi	r3,1
     bd0:	00000206 	br	bdc <__umodsi3+0x20>
     bd4:	30000c26 	beq	r6,zero,c08 <__umodsi3+0x4c>
     bd8:	28000516 	blt	r5,zero,bf0 <__umodsi3+0x34>
     bdc:	294b883a 	add	r5,r5,r5
     be0:	31bfffc4 	addi	r6,r6,-1
     be4:	18c7883a 	add	r3,r3,r3
     be8:	293ffa36 	bltu	r5,r4,bd4 <__alt_data_end+0xfffd0bd4>
     bec:	18000626 	beq	r3,zero,c08 <__umodsi3+0x4c>
     bf0:	1806d07a 	srli	r3,r3,1
     bf4:	11400136 	bltu	r2,r5,bfc <__umodsi3+0x40>
     bf8:	1145c83a 	sub	r2,r2,r5
     bfc:	280ad07a 	srli	r5,r5,1
     c00:	183ffb1e 	bne	r3,zero,bf0 <__alt_data_end+0xfffd0bf0>
     c04:	f800283a 	ret
     c08:	f800283a 	ret
     c0c:	00c00044 	movi	r3,1
     c10:	003ff706 	br	bf0 <__alt_data_end+0xfffd0bf0>

00000c14 <_printf_r>:
     c14:	defffd04 	addi	sp,sp,-12
     c18:	2805883a 	mov	r2,r5
     c1c:	dfc00015 	stw	ra,0(sp)
     c20:	d9800115 	stw	r6,4(sp)
     c24:	d9c00215 	stw	r7,8(sp)
     c28:	21400217 	ldw	r5,8(r4)
     c2c:	d9c00104 	addi	r7,sp,4
     c30:	100d883a 	mov	r6,r2
     c34:	0000e680 	call	e68 <___vfprintf_internal_r>
     c38:	dfc00017 	ldw	ra,0(sp)
     c3c:	dec00304 	addi	sp,sp,12
     c40:	f800283a 	ret

00000c44 <printf>:
     c44:	defffc04 	addi	sp,sp,-16
     c48:	dfc00015 	stw	ra,0(sp)
     c4c:	d9400115 	stw	r5,4(sp)
     c50:	d9800215 	stw	r6,8(sp)
     c54:	d9c00315 	stw	r7,12(sp)
     c58:	008000b4 	movhi	r2,2
     c5c:	10a8cb04 	addi	r2,r2,-23764
     c60:	10800017 	ldw	r2,0(r2)
     c64:	200b883a 	mov	r5,r4
     c68:	d9800104 	addi	r6,sp,4
     c6c:	11000217 	ldw	r4,8(r2)
     c70:	00031440 	call	3144 <__vfprintf_internal>
     c74:	dfc00017 	ldw	ra,0(sp)
     c78:	dec00404 	addi	sp,sp,16
     c7c:	f800283a 	ret

00000c80 <_puts_r>:
     c80:	defff604 	addi	sp,sp,-40
     c84:	dc000715 	stw	r16,28(sp)
     c88:	2021883a 	mov	r16,r4
     c8c:	2809883a 	mov	r4,r5
     c90:	dc400815 	stw	r17,32(sp)
     c94:	dfc00915 	stw	ra,36(sp)
     c98:	2823883a 	mov	r17,r5
     c9c:	0000dd00 	call	dd0 <strlen>
     ca0:	10c00044 	addi	r3,r2,1
     ca4:	d8800115 	stw	r2,4(sp)
     ca8:	008000b4 	movhi	r2,2
     cac:	10a11404 	addi	r2,r2,-31664
     cb0:	d8800215 	stw	r2,8(sp)
     cb4:	00800044 	movi	r2,1
     cb8:	d8800315 	stw	r2,12(sp)
     cbc:	00800084 	movi	r2,2
     cc0:	dc400015 	stw	r17,0(sp)
     cc4:	d8c00615 	stw	r3,24(sp)
     cc8:	dec00415 	stw	sp,16(sp)
     ccc:	d8800515 	stw	r2,20(sp)
     cd0:	80000226 	beq	r16,zero,cdc <_puts_r+0x5c>
     cd4:	80800e17 	ldw	r2,56(r16)
     cd8:	10001426 	beq	r2,zero,d2c <_puts_r+0xac>
     cdc:	81400217 	ldw	r5,8(r16)
     ce0:	2880030b 	ldhu	r2,12(r5)
     ce4:	10c8000c 	andi	r3,r2,8192
     ce8:	1800061e 	bne	r3,zero,d04 <_puts_r+0x84>
     cec:	29001917 	ldw	r4,100(r5)
     cf0:	00f7ffc4 	movi	r3,-8193
     cf4:	10880014 	ori	r2,r2,8192
     cf8:	20c6703a 	and	r3,r4,r3
     cfc:	2880030d 	sth	r2,12(r5)
     d00:	28c01915 	stw	r3,100(r5)
     d04:	d9800404 	addi	r6,sp,16
     d08:	8009883a 	mov	r4,r16
     d0c:	00056ac0 	call	56ac <__sfvwrite_r>
     d10:	1000091e 	bne	r2,zero,d38 <_puts_r+0xb8>
     d14:	00800284 	movi	r2,10
     d18:	dfc00917 	ldw	ra,36(sp)
     d1c:	dc400817 	ldw	r17,32(sp)
     d20:	dc000717 	ldw	r16,28(sp)
     d24:	dec00a04 	addi	sp,sp,40
     d28:	f800283a 	ret
     d2c:	8009883a 	mov	r4,r16
     d30:	00052280 	call	5228 <__sinit>
     d34:	003fe906 	br	cdc <__alt_data_end+0xfffd0cdc>
     d38:	00bfffc4 	movi	r2,-1
     d3c:	003ff606 	br	d18 <__alt_data_end+0xfffd0d18>

00000d40 <puts>:
     d40:	008000b4 	movhi	r2,2
     d44:	10a8cb04 	addi	r2,r2,-23764
     d48:	200b883a 	mov	r5,r4
     d4c:	11000017 	ldw	r4,0(r2)
     d50:	0000c801 	jmpi	c80 <_puts_r>

00000d54 <srand>:
     d54:	008000b4 	movhi	r2,2
     d58:	10a8cb04 	addi	r2,r2,-23764
     d5c:	10800017 	ldw	r2,0(r2)
     d60:	11002915 	stw	r4,164(r2)
     d64:	10002a15 	stw	zero,168(r2)
     d68:	f800283a 	ret

00000d6c <rand>:
     d6c:	008000b4 	movhi	r2,2
     d70:	defffe04 	addi	sp,sp,-8
     d74:	10a8cb04 	addi	r2,r2,-23764
     d78:	dc000015 	stw	r16,0(sp)
     d7c:	14000017 	ldw	r16,0(r2)
     d80:	dfc00115 	stw	ra,4(sp)
     d84:	01932574 	movhi	r6,19605
     d88:	81002917 	ldw	r4,164(r16)
     d8c:	81402a17 	ldw	r5,168(r16)
     d90:	01d614b4 	movhi	r7,22610
     d94:	319fcb44 	addi	r6,r6,32557
     d98:	39fd0b44 	addi	r7,r7,-3027
     d9c:	000a5900 	call	a590 <__muldi3>
     da0:	11000044 	addi	r4,r2,1
     da4:	2085803a 	cmpltu	r2,r4,r2
     da8:	10c7883a 	add	r3,r2,r3
     dac:	00a00034 	movhi	r2,32768
     db0:	10bfffc4 	addi	r2,r2,-1
     db4:	1884703a 	and	r2,r3,r2
     db8:	81002915 	stw	r4,164(r16)
     dbc:	80c02a15 	stw	r3,168(r16)
     dc0:	dfc00117 	ldw	ra,4(sp)
     dc4:	dc000017 	ldw	r16,0(sp)
     dc8:	dec00204 	addi	sp,sp,8
     dcc:	f800283a 	ret

00000dd0 <strlen>:
     dd0:	208000cc 	andi	r2,r4,3
     dd4:	10002026 	beq	r2,zero,e58 <strlen+0x88>
     dd8:	20800007 	ldb	r2,0(r4)
     ddc:	10002026 	beq	r2,zero,e60 <strlen+0x90>
     de0:	2005883a 	mov	r2,r4
     de4:	00000206 	br	df0 <strlen+0x20>
     de8:	10c00007 	ldb	r3,0(r2)
     dec:	18001826 	beq	r3,zero,e50 <strlen+0x80>
     df0:	10800044 	addi	r2,r2,1
     df4:	10c000cc 	andi	r3,r2,3
     df8:	183ffb1e 	bne	r3,zero,de8 <__alt_data_end+0xfffd0de8>
     dfc:	10c00017 	ldw	r3,0(r2)
     e00:	01ffbff4 	movhi	r7,65279
     e04:	39ffbfc4 	addi	r7,r7,-257
     e08:	00ca303a 	nor	r5,zero,r3
     e0c:	01a02074 	movhi	r6,32897
     e10:	19c7883a 	add	r3,r3,r7
     e14:	31a02004 	addi	r6,r6,-32640
     e18:	1946703a 	and	r3,r3,r5
     e1c:	1986703a 	and	r3,r3,r6
     e20:	1800091e 	bne	r3,zero,e48 <strlen+0x78>
     e24:	10800104 	addi	r2,r2,4
     e28:	10c00017 	ldw	r3,0(r2)
     e2c:	19cb883a 	add	r5,r3,r7
     e30:	00c6303a 	nor	r3,zero,r3
     e34:	28c6703a 	and	r3,r5,r3
     e38:	1986703a 	and	r3,r3,r6
     e3c:	183ff926 	beq	r3,zero,e24 <__alt_data_end+0xfffd0e24>
     e40:	00000106 	br	e48 <strlen+0x78>
     e44:	10800044 	addi	r2,r2,1
     e48:	10c00007 	ldb	r3,0(r2)
     e4c:	183ffd1e 	bne	r3,zero,e44 <__alt_data_end+0xfffd0e44>
     e50:	1105c83a 	sub	r2,r2,r4
     e54:	f800283a 	ret
     e58:	2005883a 	mov	r2,r4
     e5c:	003fe706 	br	dfc <__alt_data_end+0xfffd0dfc>
     e60:	0005883a 	mov	r2,zero
     e64:	f800283a 	ret

00000e68 <___vfprintf_internal_r>:
     e68:	deffb804 	addi	sp,sp,-288
     e6c:	dfc04715 	stw	ra,284(sp)
     e70:	ddc04515 	stw	r23,276(sp)
     e74:	dd404315 	stw	r21,268(sp)
     e78:	d9002d15 	stw	r4,180(sp)
     e7c:	282f883a 	mov	r23,r5
     e80:	302b883a 	mov	r21,r6
     e84:	d9c02e15 	stw	r7,184(sp)
     e88:	df004615 	stw	fp,280(sp)
     e8c:	dd804415 	stw	r22,272(sp)
     e90:	dd004215 	stw	r20,264(sp)
     e94:	dcc04115 	stw	r19,260(sp)
     e98:	dc804015 	stw	r18,256(sp)
     e9c:	dc403f15 	stw	r17,252(sp)
     ea0:	dc003e15 	stw	r16,248(sp)
     ea4:	0005da80 	call	5da8 <_localeconv_r>
     ea8:	10800017 	ldw	r2,0(r2)
     eac:	1009883a 	mov	r4,r2
     eb0:	d8803415 	stw	r2,208(sp)
     eb4:	0000dd00 	call	dd0 <strlen>
     eb8:	d8803715 	stw	r2,220(sp)
     ebc:	d8802d17 	ldw	r2,180(sp)
     ec0:	10000226 	beq	r2,zero,ecc <___vfprintf_internal_r+0x64>
     ec4:	10800e17 	ldw	r2,56(r2)
     ec8:	1000fb26 	beq	r2,zero,12b8 <___vfprintf_internal_r+0x450>
     ecc:	b880030b 	ldhu	r2,12(r23)
     ed0:	10c8000c 	andi	r3,r2,8192
     ed4:	1800061e 	bne	r3,zero,ef0 <___vfprintf_internal_r+0x88>
     ed8:	b9001917 	ldw	r4,100(r23)
     edc:	00f7ffc4 	movi	r3,-8193
     ee0:	10880014 	ori	r2,r2,8192
     ee4:	20c6703a 	and	r3,r4,r3
     ee8:	b880030d 	sth	r2,12(r23)
     eec:	b8c01915 	stw	r3,100(r23)
     ef0:	10c0020c 	andi	r3,r2,8
     ef4:	1800c326 	beq	r3,zero,1204 <___vfprintf_internal_r+0x39c>
     ef8:	b8c00417 	ldw	r3,16(r23)
     efc:	1800c126 	beq	r3,zero,1204 <___vfprintf_internal_r+0x39c>
     f00:	1080068c 	andi	r2,r2,26
     f04:	00c00284 	movi	r3,10
     f08:	10c0c626 	beq	r2,r3,1224 <___vfprintf_internal_r+0x3bc>
     f0c:	d8c00404 	addi	r3,sp,16
     f10:	050000b4 	movhi	r20,2
     f14:	d9001e04 	addi	r4,sp,120
     f18:	a5212584 	addi	r20,r20,-31594
     f1c:	d8c01e15 	stw	r3,120(sp)
     f20:	d8002015 	stw	zero,128(sp)
     f24:	d8001f15 	stw	zero,124(sp)
     f28:	d8003315 	stw	zero,204(sp)
     f2c:	d8003615 	stw	zero,216(sp)
     f30:	d8003815 	stw	zero,224(sp)
     f34:	1811883a 	mov	r8,r3
     f38:	d8003915 	stw	zero,228(sp)
     f3c:	d8003a15 	stw	zero,232(sp)
     f40:	d8002f15 	stw	zero,188(sp)
     f44:	d9002815 	stw	r4,160(sp)
     f48:	a8800007 	ldb	r2,0(r21)
     f4c:	10028b26 	beq	r2,zero,197c <___vfprintf_internal_r+0xb14>
     f50:	00c00944 	movi	r3,37
     f54:	a823883a 	mov	r17,r21
     f58:	10c0021e 	bne	r2,r3,f64 <___vfprintf_internal_r+0xfc>
     f5c:	00001406 	br	fb0 <___vfprintf_internal_r+0x148>
     f60:	10c00326 	beq	r2,r3,f70 <___vfprintf_internal_r+0x108>
     f64:	8c400044 	addi	r17,r17,1
     f68:	88800007 	ldb	r2,0(r17)
     f6c:	103ffc1e 	bne	r2,zero,f60 <__alt_data_end+0xfffd0f60>
     f70:	8d61c83a 	sub	r16,r17,r21
     f74:	80000e26 	beq	r16,zero,fb0 <___vfprintf_internal_r+0x148>
     f78:	d8c02017 	ldw	r3,128(sp)
     f7c:	d8801f17 	ldw	r2,124(sp)
     f80:	45400015 	stw	r21,0(r8)
     f84:	1c07883a 	add	r3,r3,r16
     f88:	10800044 	addi	r2,r2,1
     f8c:	d8c02015 	stw	r3,128(sp)
     f90:	44000115 	stw	r16,4(r8)
     f94:	d8801f15 	stw	r2,124(sp)
     f98:	00c001c4 	movi	r3,7
     f9c:	1880a916 	blt	r3,r2,1244 <___vfprintf_internal_r+0x3dc>
     fa0:	42000204 	addi	r8,r8,8
     fa4:	d9402f17 	ldw	r5,188(sp)
     fa8:	2c0b883a 	add	r5,r5,r16
     fac:	d9402f15 	stw	r5,188(sp)
     fb0:	88800007 	ldb	r2,0(r17)
     fb4:	1000aa26 	beq	r2,zero,1260 <___vfprintf_internal_r+0x3f8>
     fb8:	8d400044 	addi	r21,r17,1
     fbc:	8c400047 	ldb	r17,1(r17)
     fc0:	0021883a 	mov	r16,zero
     fc4:	00bfffc4 	movi	r2,-1
     fc8:	0025883a 	mov	r18,zero
     fcc:	dc002905 	stb	r16,164(sp)
     fd0:	d8002785 	stb	zero,158(sp)
     fd4:	d8002b05 	stb	zero,172(sp)
     fd8:	d8802a15 	stw	r2,168(sp)
     fdc:	d8003115 	stw	zero,196(sp)
     fe0:	04c01604 	movi	r19,88
     fe4:	05800244 	movi	r22,9
     fe8:	9021883a 	mov	r16,r18
     fec:	4039883a 	mov	fp,r8
     ff0:	ad400044 	addi	r21,r21,1
     ff4:	88bff804 	addi	r2,r17,-32
     ff8:	98833236 	bltu	r19,r2,1cc4 <___vfprintf_internal_r+0xe5c>
     ffc:	100490ba 	slli	r2,r2,2
    1000:	00c00034 	movhi	r3,0
    1004:	18c40504 	addi	r3,r3,4116
    1008:	10c5883a 	add	r2,r2,r3
    100c:	10800017 	ldw	r2,0(r2)
    1010:	1000683a 	jmp	r2
    1014:	00001bbc 	xorhi	zero,zero,110
    1018:	00001cc4 	movi	zero,115
    101c:	00001cc4 	movi	zero,115
    1020:	00001bdc 	xori	zero,zero,111
    1024:	00001cc4 	movi	zero,115
    1028:	00001cc4 	movi	zero,115
    102c:	00001cc4 	movi	zero,115
    1030:	00001cc4 	movi	zero,115
    1034:	00001cc4 	movi	zero,115
    1038:	00001cc4 	movi	zero,115
    103c:	000012c4 	movi	zero,75
    1040:	00001acc 	andi	zero,zero,107
    1044:	00001cc4 	movi	zero,115
    1048:	00001188 	cmpgei	zero,zero,70
    104c:	000012e8 	cmpgeui	zero,zero,75
    1050:	00001cc4 	movi	zero,115
    1054:	00001338 	rdprs	zero,zero,76
    1058:	00001344 	movi	zero,77
    105c:	00001344 	movi	zero,77
    1060:	00001344 	movi	zero,77
    1064:	00001344 	movi	zero,77
    1068:	00001344 	movi	zero,77
    106c:	00001344 	movi	zero,77
    1070:	00001344 	movi	zero,77
    1074:	00001344 	movi	zero,77
    1078:	00001344 	movi	zero,77
    107c:	00001cc4 	movi	zero,115
    1080:	00001cc4 	movi	zero,115
    1084:	00001cc4 	movi	zero,115
    1088:	00001cc4 	movi	zero,115
    108c:	00001cc4 	movi	zero,115
    1090:	00001cc4 	movi	zero,115
    1094:	00001cc4 	movi	zero,115
    1098:	00001cc4 	movi	zero,115
    109c:	00001cc4 	movi	zero,115
    10a0:	00001cc4 	movi	zero,115
    10a4:	00001380 	call	138 <alt_irq_handler+0x4c>
    10a8:	00001448 	cmpgei	zero,zero,81
    10ac:	00001cc4 	movi	zero,115
    10b0:	00001448 	cmpgei	zero,zero,81
    10b4:	00001cc4 	movi	zero,115
    10b8:	00001cc4 	movi	zero,115
    10bc:	00001cc4 	movi	zero,115
    10c0:	00001cc4 	movi	zero,115
    10c4:	000014f4 	movhi	zero,83
    10c8:	00001cc4 	movi	zero,115
    10cc:	00001cc4 	movi	zero,115
    10d0:	00001500 	call	150 <alt_irq_handler+0x64>
    10d4:	00001cc4 	movi	zero,115
    10d8:	00001cc4 	movi	zero,115
    10dc:	00001cc4 	movi	zero,115
    10e0:	00001cc4 	movi	zero,115
    10e4:	00001cc4 	movi	zero,115
    10e8:	00001984 	movi	zero,102
    10ec:	00001cc4 	movi	zero,115
    10f0:	00001cc4 	movi	zero,115
    10f4:	000019f0 	cmpltui	zero,zero,103
    10f8:	00001cc4 	movi	zero,115
    10fc:	00001cc4 	movi	zero,115
    1100:	00001cc4 	movi	zero,115
    1104:	00001cc4 	movi	zero,115
    1108:	00001cc4 	movi	zero,115
    110c:	00001cc4 	movi	zero,115
    1110:	00001cc4 	movi	zero,115
    1114:	00001cc4 	movi	zero,115
    1118:	00001cc4 	movi	zero,115
    111c:	00001cc4 	movi	zero,115
    1120:	00001c68 	cmpgeui	zero,zero,113
    1124:	00001be8 	cmpgeui	zero,zero,111
    1128:	00001448 	cmpgei	zero,zero,81
    112c:	00001448 	cmpgei	zero,zero,81
    1130:	00001448 	cmpgei	zero,zero,81
    1134:	00001c08 	cmpgei	zero,zero,112
    1138:	00001be8 	cmpgeui	zero,zero,111
    113c:	00001cc4 	movi	zero,115
    1140:	00001cc4 	movi	zero,115
    1144:	00001c14 	movui	zero,112
    1148:	00001cc4 	movi	zero,115
    114c:	00001c28 	cmpgeui	zero,zero,112
    1150:	00001aac 	andhi	zero,zero,106
    1154:	00001194 	movui	zero,70
    1158:	00001ae4 	muli	zero,zero,107
    115c:	00001cc4 	movi	zero,115
    1160:	00001af0 	cmpltui	zero,zero,107
    1164:	00001cc4 	movi	zero,115
    1168:	00001b54 	movui	zero,109
    116c:	00001cc4 	movi	zero,115
    1170:	00001cc4 	movi	zero,115
    1174:	00001b74 	movhi	zero,109
    1178:	d8c03117 	ldw	r3,196(sp)
    117c:	d8802e15 	stw	r2,184(sp)
    1180:	00c7c83a 	sub	r3,zero,r3
    1184:	d8c03115 	stw	r3,196(sp)
    1188:	84000114 	ori	r16,r16,4
    118c:	ac400007 	ldb	r17,0(r21)
    1190:	003f9706 	br	ff0 <__alt_data_end+0xfffd0ff0>
    1194:	00800c04 	movi	r2,48
    1198:	d8802705 	stb	r2,156(sp)
    119c:	00801e04 	movi	r2,120
    11a0:	d8802745 	stb	r2,157(sp)
    11a4:	d9002a17 	ldw	r4,168(sp)
    11a8:	d8802e17 	ldw	r2,184(sp)
    11ac:	d8002785 	stb	zero,158(sp)
    11b0:	e011883a 	mov	r8,fp
    11b4:	10c00104 	addi	r3,r2,4
    11b8:	14c00017 	ldw	r19,0(r2)
    11bc:	002d883a 	mov	r22,zero
    11c0:	80800094 	ori	r2,r16,2
    11c4:	2002ca16 	blt	r4,zero,1cf0 <___vfprintf_internal_r+0xe88>
    11c8:	00bfdfc4 	movi	r2,-129
    11cc:	80a4703a 	and	r18,r16,r2
    11d0:	d8c02e15 	stw	r3,184(sp)
    11d4:	94800094 	ori	r18,r18,2
    11d8:	9802b41e 	bne	r19,zero,1cac <___vfprintf_internal_r+0xe44>
    11dc:	014000b4 	movhi	r5,2
    11e0:	29611e04 	addi	r5,r5,-31624
    11e4:	d9403915 	stw	r5,228(sp)
    11e8:	04401e04 	movi	r17,120
    11ec:	d8802a17 	ldw	r2,168(sp)
    11f0:	0039883a 	mov	fp,zero
    11f4:	1001fa26 	beq	r2,zero,19e0 <___vfprintf_internal_r+0xb78>
    11f8:	0027883a 	mov	r19,zero
    11fc:	002d883a 	mov	r22,zero
    1200:	00021906 	br	1a68 <___vfprintf_internal_r+0xc00>
    1204:	d9002d17 	ldw	r4,180(sp)
    1208:	b80b883a 	mov	r5,r23
    120c:	000321c0 	call	321c <__swsetup_r>
    1210:	1005dc1e 	bne	r2,zero,2984 <___vfprintf_internal_r+0x1b1c>
    1214:	b880030b 	ldhu	r2,12(r23)
    1218:	00c00284 	movi	r3,10
    121c:	1080068c 	andi	r2,r2,26
    1220:	10ff3a1e 	bne	r2,r3,f0c <__alt_data_end+0xfffd0f0c>
    1224:	b880038f 	ldh	r2,14(r23)
    1228:	103f3816 	blt	r2,zero,f0c <__alt_data_end+0xfffd0f0c>
    122c:	d9c02e17 	ldw	r7,184(sp)
    1230:	d9002d17 	ldw	r4,180(sp)
    1234:	a80d883a 	mov	r6,r21
    1238:	b80b883a 	mov	r5,r23
    123c:	00031600 	call	3160 <__sbprintf>
    1240:	00001106 	br	1288 <___vfprintf_internal_r+0x420>
    1244:	d9002d17 	ldw	r4,180(sp)
    1248:	d9801e04 	addi	r6,sp,120
    124c:	b80b883a 	mov	r5,r23
    1250:	00086480 	call	8648 <__sprint_r>
    1254:	1000081e 	bne	r2,zero,1278 <___vfprintf_internal_r+0x410>
    1258:	da000404 	addi	r8,sp,16
    125c:	003f5106 	br	fa4 <__alt_data_end+0xfffd0fa4>
    1260:	d8802017 	ldw	r2,128(sp)
    1264:	10000426 	beq	r2,zero,1278 <___vfprintf_internal_r+0x410>
    1268:	d9002d17 	ldw	r4,180(sp)
    126c:	d9801e04 	addi	r6,sp,120
    1270:	b80b883a 	mov	r5,r23
    1274:	00086480 	call	8648 <__sprint_r>
    1278:	b880030b 	ldhu	r2,12(r23)
    127c:	1080100c 	andi	r2,r2,64
    1280:	1005c01e 	bne	r2,zero,2984 <___vfprintf_internal_r+0x1b1c>
    1284:	d8802f17 	ldw	r2,188(sp)
    1288:	dfc04717 	ldw	ra,284(sp)
    128c:	df004617 	ldw	fp,280(sp)
    1290:	ddc04517 	ldw	r23,276(sp)
    1294:	dd804417 	ldw	r22,272(sp)
    1298:	dd404317 	ldw	r21,268(sp)
    129c:	dd004217 	ldw	r20,264(sp)
    12a0:	dcc04117 	ldw	r19,260(sp)
    12a4:	dc804017 	ldw	r18,256(sp)
    12a8:	dc403f17 	ldw	r17,252(sp)
    12ac:	dc003e17 	ldw	r16,248(sp)
    12b0:	dec04804 	addi	sp,sp,288
    12b4:	f800283a 	ret
    12b8:	d9002d17 	ldw	r4,180(sp)
    12bc:	00052280 	call	5228 <__sinit>
    12c0:	003f0206 	br	ecc <__alt_data_end+0xfffd0ecc>
    12c4:	d9002e17 	ldw	r4,184(sp)
    12c8:	d9402e17 	ldw	r5,184(sp)
    12cc:	21000017 	ldw	r4,0(r4)
    12d0:	28800104 	addi	r2,r5,4
    12d4:	d9003115 	stw	r4,196(sp)
    12d8:	203fa716 	blt	r4,zero,1178 <__alt_data_end+0xfffd1178>
    12dc:	d8802e15 	stw	r2,184(sp)
    12e0:	ac400007 	ldb	r17,0(r21)
    12e4:	003f4206 	br	ff0 <__alt_data_end+0xfffd0ff0>
    12e8:	ac400007 	ldb	r17,0(r21)
    12ec:	01000a84 	movi	r4,42
    12f0:	a8c00044 	addi	r3,r21,1
    12f4:	89075826 	beq	r17,r4,3058 <___vfprintf_internal_r+0x21f0>
    12f8:	8cbff404 	addi	r18,r17,-48
    12fc:	b486ae36 	bltu	r22,r18,2db8 <___vfprintf_internal_r+0x1f50>
    1300:	0009883a 	mov	r4,zero
    1304:	1823883a 	mov	r17,r3
    1308:	01400284 	movi	r5,10
    130c:	000b25c0 	call	b25c <__mulsi3>
    1310:	88c00007 	ldb	r3,0(r17)
    1314:	1489883a 	add	r4,r2,r18
    1318:	8d400044 	addi	r21,r17,1
    131c:	1cbff404 	addi	r18,r3,-48
    1320:	a823883a 	mov	r17,r21
    1324:	b4bff82e 	bgeu	r22,r18,1308 <__alt_data_end+0xfffd1308>
    1328:	1823883a 	mov	r17,r3
    132c:	2005f616 	blt	r4,zero,2b08 <___vfprintf_internal_r+0x1ca0>
    1330:	d9002a15 	stw	r4,168(sp)
    1334:	003f2f06 	br	ff4 <__alt_data_end+0xfffd0ff4>
    1338:	84002014 	ori	r16,r16,128
    133c:	ac400007 	ldb	r17,0(r21)
    1340:	003f2b06 	br	ff0 <__alt_data_end+0xfffd0ff0>
    1344:	8cbff404 	addi	r18,r17,-48
    1348:	d8003115 	stw	zero,196(sp)
    134c:	0009883a 	mov	r4,zero
    1350:	a823883a 	mov	r17,r21
    1354:	01400284 	movi	r5,10
    1358:	000b25c0 	call	b25c <__mulsi3>
    135c:	88c00007 	ldb	r3,0(r17)
    1360:	9089883a 	add	r4,r18,r2
    1364:	ad400044 	addi	r21,r21,1
    1368:	1cbff404 	addi	r18,r3,-48
    136c:	a823883a 	mov	r17,r21
    1370:	b4bff82e 	bgeu	r22,r18,1354 <__alt_data_end+0xfffd1354>
    1374:	1823883a 	mov	r17,r3
    1378:	d9003115 	stw	r4,196(sp)
    137c:	003f1d06 	br	ff4 <__alt_data_end+0xfffd0ff4>
    1380:	8025883a 	mov	r18,r16
    1384:	dc002903 	ldbu	r16,164(sp)
    1388:	e011883a 	mov	r8,fp
    138c:	84003fcc 	andi	r16,r16,255
    1390:	8007531e 	bne	r16,zero,30e0 <___vfprintf_internal_r+0x2278>
    1394:	94800414 	ori	r18,r18,16
    1398:	9080080c 	andi	r2,r18,32
    139c:	1003a326 	beq	r2,zero,222c <___vfprintf_internal_r+0x13c4>
    13a0:	d9002e17 	ldw	r4,184(sp)
    13a4:	20800117 	ldw	r2,4(r4)
    13a8:	24c00017 	ldw	r19,0(r4)
    13ac:	21000204 	addi	r4,r4,8
    13b0:	d9002e15 	stw	r4,184(sp)
    13b4:	102d883a 	mov	r22,r2
    13b8:	10047316 	blt	r2,zero,2588 <___vfprintf_internal_r+0x1720>
    13bc:	d9002a17 	ldw	r4,168(sp)
    13c0:	df002783 	ldbu	fp,158(sp)
    13c4:	2003e416 	blt	r4,zero,2358 <___vfprintf_internal_r+0x14f0>
    13c8:	00ffdfc4 	movi	r3,-129
    13cc:	9d84b03a 	or	r2,r19,r22
    13d0:	90e4703a 	and	r18,r18,r3
    13d4:	10018026 	beq	r2,zero,19d8 <___vfprintf_internal_r+0xb70>
    13d8:	b003ab26 	beq	r22,zero,2288 <___vfprintf_internal_r+0x1420>
    13dc:	dc402915 	stw	r17,164(sp)
    13e0:	dc001e04 	addi	r16,sp,120
    13e4:	b023883a 	mov	r17,r22
    13e8:	402d883a 	mov	r22,r8
    13ec:	9809883a 	mov	r4,r19
    13f0:	880b883a 	mov	r5,r17
    13f4:	01800284 	movi	r6,10
    13f8:	000f883a 	mov	r7,zero
    13fc:	000ac980 	call	ac98 <__umoddi3>
    1400:	10800c04 	addi	r2,r2,48
    1404:	843fffc4 	addi	r16,r16,-1
    1408:	9809883a 	mov	r4,r19
    140c:	880b883a 	mov	r5,r17
    1410:	80800005 	stb	r2,0(r16)
    1414:	01800284 	movi	r6,10
    1418:	000f883a 	mov	r7,zero
    141c:	000a69c0 	call	a69c <__udivdi3>
    1420:	1027883a 	mov	r19,r2
    1424:	10c4b03a 	or	r2,r2,r3
    1428:	1823883a 	mov	r17,r3
    142c:	103fef1e 	bne	r2,zero,13ec <__alt_data_end+0xfffd13ec>
    1430:	d8c02817 	ldw	r3,160(sp)
    1434:	dc402917 	ldw	r17,164(sp)
    1438:	b011883a 	mov	r8,r22
    143c:	1c07c83a 	sub	r3,r3,r16
    1440:	d8c02b15 	stw	r3,172(sp)
    1444:	00005f06 	br	15c4 <___vfprintf_internal_r+0x75c>
    1448:	8025883a 	mov	r18,r16
    144c:	dc002903 	ldbu	r16,164(sp)
    1450:	e011883a 	mov	r8,fp
    1454:	84003fcc 	andi	r16,r16,255
    1458:	80071e1e 	bne	r16,zero,30d4 <___vfprintf_internal_r+0x226c>
    145c:	9080020c 	andi	r2,r18,8
    1460:	1004af26 	beq	r2,zero,2720 <___vfprintf_internal_r+0x18b8>
    1464:	d9002e17 	ldw	r4,184(sp)
    1468:	d9402e17 	ldw	r5,184(sp)
    146c:	d8802e17 	ldw	r2,184(sp)
    1470:	21000017 	ldw	r4,0(r4)
    1474:	29400117 	ldw	r5,4(r5)
    1478:	10800204 	addi	r2,r2,8
    147c:	d9003615 	stw	r4,216(sp)
    1480:	d9403815 	stw	r5,224(sp)
    1484:	d8802e15 	stw	r2,184(sp)
    1488:	d9003617 	ldw	r4,216(sp)
    148c:	d9403817 	ldw	r5,224(sp)
    1490:	da003d15 	stw	r8,244(sp)
    1494:	04000044 	movi	r16,1
    1498:	000826c0 	call	826c <__fpclassifyd>
    149c:	da003d17 	ldw	r8,244(sp)
    14a0:	1404441e 	bne	r2,r16,25b4 <___vfprintf_internal_r+0x174c>
    14a4:	d9003617 	ldw	r4,216(sp)
    14a8:	d9403817 	ldw	r5,224(sp)
    14ac:	000d883a 	mov	r6,zero
    14b0:	000f883a 	mov	r7,zero
    14b4:	000c6640 	call	c664 <__ledf2>
    14b8:	da003d17 	ldw	r8,244(sp)
    14bc:	1005e316 	blt	r2,zero,2c4c <___vfprintf_internal_r+0x1de4>
    14c0:	df002783 	ldbu	fp,158(sp)
    14c4:	008011c4 	movi	r2,71
    14c8:	1445580e 	bge	r2,r17,2a2c <___vfprintf_internal_r+0x1bc4>
    14cc:	040000b4 	movhi	r16,2
    14d0:	84211604 	addi	r16,r16,-31656
    14d4:	00c000c4 	movi	r3,3
    14d8:	00bfdfc4 	movi	r2,-129
    14dc:	d8c02915 	stw	r3,164(sp)
    14e0:	90a4703a 	and	r18,r18,r2
    14e4:	d8c02b15 	stw	r3,172(sp)
    14e8:	d8002a15 	stw	zero,168(sp)
    14ec:	d8003215 	stw	zero,200(sp)
    14f0:	00003a06 	br	15dc <___vfprintf_internal_r+0x774>
    14f4:	84000214 	ori	r16,r16,8
    14f8:	ac400007 	ldb	r17,0(r21)
    14fc:	003ebc06 	br	ff0 <__alt_data_end+0xfffd0ff0>
    1500:	8025883a 	mov	r18,r16
    1504:	dc002903 	ldbu	r16,164(sp)
    1508:	e011883a 	mov	r8,fp
    150c:	84003fcc 	andi	r16,r16,255
    1510:	8007001e 	bne	r16,zero,3114 <___vfprintf_internal_r+0x22ac>
    1514:	94800414 	ori	r18,r18,16
    1518:	9080080c 	andi	r2,r18,32
    151c:	1002fa26 	beq	r2,zero,2108 <___vfprintf_internal_r+0x12a0>
    1520:	d9002e17 	ldw	r4,184(sp)
    1524:	d9402a17 	ldw	r5,168(sp)
    1528:	d8002785 	stb	zero,158(sp)
    152c:	20800204 	addi	r2,r4,8
    1530:	24c00017 	ldw	r19,0(r4)
    1534:	25800117 	ldw	r22,4(r4)
    1538:	2804b116 	blt	r5,zero,2800 <___vfprintf_internal_r+0x1998>
    153c:	013fdfc4 	movi	r4,-129
    1540:	9d86b03a 	or	r3,r19,r22
    1544:	d8802e15 	stw	r2,184(sp)
    1548:	9124703a 	and	r18,r18,r4
    154c:	1802fb1e 	bne	r3,zero,213c <___vfprintf_internal_r+0x12d4>
    1550:	d8c02a17 	ldw	r3,168(sp)
    1554:	0039883a 	mov	fp,zero
    1558:	1805e526 	beq	r3,zero,2cf0 <___vfprintf_internal_r+0x1e88>
    155c:	0027883a 	mov	r19,zero
    1560:	002d883a 	mov	r22,zero
    1564:	dc001e04 	addi	r16,sp,120
    1568:	9806d0fa 	srli	r3,r19,3
    156c:	b008977a 	slli	r4,r22,29
    1570:	b02cd0fa 	srli	r22,r22,3
    1574:	9cc001cc 	andi	r19,r19,7
    1578:	98800c04 	addi	r2,r19,48
    157c:	843fffc4 	addi	r16,r16,-1
    1580:	20e6b03a 	or	r19,r4,r3
    1584:	80800005 	stb	r2,0(r16)
    1588:	9d86b03a 	or	r3,r19,r22
    158c:	183ff61e 	bne	r3,zero,1568 <__alt_data_end+0xfffd1568>
    1590:	90c0004c 	andi	r3,r18,1
    1594:	18014126 	beq	r3,zero,1a9c <___vfprintf_internal_r+0xc34>
    1598:	10803fcc 	andi	r2,r2,255
    159c:	1080201c 	xori	r2,r2,128
    15a0:	10bfe004 	addi	r2,r2,-128
    15a4:	00c00c04 	movi	r3,48
    15a8:	10c13c26 	beq	r2,r3,1a9c <___vfprintf_internal_r+0xc34>
    15ac:	80ffffc5 	stb	r3,-1(r16)
    15b0:	d8c02817 	ldw	r3,160(sp)
    15b4:	80bfffc4 	addi	r2,r16,-1
    15b8:	1021883a 	mov	r16,r2
    15bc:	1887c83a 	sub	r3,r3,r2
    15c0:	d8c02b15 	stw	r3,172(sp)
    15c4:	d8802b17 	ldw	r2,172(sp)
    15c8:	d9002a17 	ldw	r4,168(sp)
    15cc:	1100010e 	bge	r2,r4,15d4 <___vfprintf_internal_r+0x76c>
    15d0:	2005883a 	mov	r2,r4
    15d4:	d8802915 	stw	r2,164(sp)
    15d8:	d8003215 	stw	zero,200(sp)
    15dc:	e7003fcc 	andi	fp,fp,255
    15e0:	e700201c 	xori	fp,fp,128
    15e4:	e73fe004 	addi	fp,fp,-128
    15e8:	e0000326 	beq	fp,zero,15f8 <___vfprintf_internal_r+0x790>
    15ec:	d8c02917 	ldw	r3,164(sp)
    15f0:	18c00044 	addi	r3,r3,1
    15f4:	d8c02915 	stw	r3,164(sp)
    15f8:	90c0008c 	andi	r3,r18,2
    15fc:	d8c02c15 	stw	r3,176(sp)
    1600:	18000326 	beq	r3,zero,1610 <___vfprintf_internal_r+0x7a8>
    1604:	d8c02917 	ldw	r3,164(sp)
    1608:	18c00084 	addi	r3,r3,2
    160c:	d8c02915 	stw	r3,164(sp)
    1610:	90c0210c 	andi	r3,r18,132
    1614:	d8c03015 	stw	r3,192(sp)
    1618:	1801c51e 	bne	r3,zero,1d30 <___vfprintf_internal_r+0xec8>
    161c:	d9003117 	ldw	r4,196(sp)
    1620:	d8c02917 	ldw	r3,164(sp)
    1624:	20e7c83a 	sub	r19,r4,r3
    1628:	04c1c10e 	bge	zero,r19,1d30 <___vfprintf_internal_r+0xec8>
    162c:	02400404 	movi	r9,16
    1630:	d8c02017 	ldw	r3,128(sp)
    1634:	d8801f17 	ldw	r2,124(sp)
    1638:	4cc52f0e 	bge	r9,r19,2af8 <___vfprintf_internal_r+0x1c90>
    163c:	014000b4 	movhi	r5,2
    1640:	29612984 	addi	r5,r5,-31578
    1644:	dc403b15 	stw	r17,236(sp)
    1648:	d9403515 	stw	r5,212(sp)
    164c:	9823883a 	mov	r17,r19
    1650:	482d883a 	mov	r22,r9
    1654:	9027883a 	mov	r19,r18
    1658:	070001c4 	movi	fp,7
    165c:	8025883a 	mov	r18,r16
    1660:	dc002d17 	ldw	r16,180(sp)
    1664:	00000306 	br	1674 <___vfprintf_internal_r+0x80c>
    1668:	8c7ffc04 	addi	r17,r17,-16
    166c:	42000204 	addi	r8,r8,8
    1670:	b440130e 	bge	r22,r17,16c0 <___vfprintf_internal_r+0x858>
    1674:	010000b4 	movhi	r4,2
    1678:	18c00404 	addi	r3,r3,16
    167c:	10800044 	addi	r2,r2,1
    1680:	21212984 	addi	r4,r4,-31578
    1684:	41000015 	stw	r4,0(r8)
    1688:	45800115 	stw	r22,4(r8)
    168c:	d8c02015 	stw	r3,128(sp)
    1690:	d8801f15 	stw	r2,124(sp)
    1694:	e0bff40e 	bge	fp,r2,1668 <__alt_data_end+0xfffd1668>
    1698:	d9801e04 	addi	r6,sp,120
    169c:	b80b883a 	mov	r5,r23
    16a0:	8009883a 	mov	r4,r16
    16a4:	00086480 	call	8648 <__sprint_r>
    16a8:	103ef31e 	bne	r2,zero,1278 <__alt_data_end+0xfffd1278>
    16ac:	8c7ffc04 	addi	r17,r17,-16
    16b0:	d8c02017 	ldw	r3,128(sp)
    16b4:	d8801f17 	ldw	r2,124(sp)
    16b8:	da000404 	addi	r8,sp,16
    16bc:	b47fed16 	blt	r22,r17,1674 <__alt_data_end+0xfffd1674>
    16c0:	9021883a 	mov	r16,r18
    16c4:	9825883a 	mov	r18,r19
    16c8:	8827883a 	mov	r19,r17
    16cc:	dc403b17 	ldw	r17,236(sp)
    16d0:	d9403517 	ldw	r5,212(sp)
    16d4:	98c7883a 	add	r3,r19,r3
    16d8:	10800044 	addi	r2,r2,1
    16dc:	41400015 	stw	r5,0(r8)
    16e0:	44c00115 	stw	r19,4(r8)
    16e4:	d8c02015 	stw	r3,128(sp)
    16e8:	d8801f15 	stw	r2,124(sp)
    16ec:	010001c4 	movi	r4,7
    16f0:	2082c516 	blt	r4,r2,2208 <___vfprintf_internal_r+0x13a0>
    16f4:	df002787 	ldb	fp,158(sp)
    16f8:	42000204 	addi	r8,r8,8
    16fc:	e0000c26 	beq	fp,zero,1730 <___vfprintf_internal_r+0x8c8>
    1700:	d8801f17 	ldw	r2,124(sp)
    1704:	d9002784 	addi	r4,sp,158
    1708:	18c00044 	addi	r3,r3,1
    170c:	10800044 	addi	r2,r2,1
    1710:	41000015 	stw	r4,0(r8)
    1714:	01000044 	movi	r4,1
    1718:	41000115 	stw	r4,4(r8)
    171c:	d8c02015 	stw	r3,128(sp)
    1720:	d8801f15 	stw	r2,124(sp)
    1724:	010001c4 	movi	r4,7
    1728:	20825e16 	blt	r4,r2,20a4 <___vfprintf_internal_r+0x123c>
    172c:	42000204 	addi	r8,r8,8
    1730:	d8802c17 	ldw	r2,176(sp)
    1734:	10000c26 	beq	r2,zero,1768 <___vfprintf_internal_r+0x900>
    1738:	d8801f17 	ldw	r2,124(sp)
    173c:	d9002704 	addi	r4,sp,156
    1740:	18c00084 	addi	r3,r3,2
    1744:	10800044 	addi	r2,r2,1
    1748:	41000015 	stw	r4,0(r8)
    174c:	01000084 	movi	r4,2
    1750:	41000115 	stw	r4,4(r8)
    1754:	d8c02015 	stw	r3,128(sp)
    1758:	d8801f15 	stw	r2,124(sp)
    175c:	010001c4 	movi	r4,7
    1760:	20825816 	blt	r4,r2,20c4 <___vfprintf_internal_r+0x125c>
    1764:	42000204 	addi	r8,r8,8
    1768:	d9003017 	ldw	r4,192(sp)
    176c:	00802004 	movi	r2,128
    1770:	2081bb26 	beq	r4,r2,1e60 <___vfprintf_internal_r+0xff8>
    1774:	d9402a17 	ldw	r5,168(sp)
    1778:	d8802b17 	ldw	r2,172(sp)
    177c:	28adc83a 	sub	r22,r5,r2
    1780:	0580310e 	bge	zero,r22,1848 <___vfprintf_internal_r+0x9e0>
    1784:	07000404 	movi	fp,16
    1788:	d8801f17 	ldw	r2,124(sp)
    178c:	e584360e 	bge	fp,r22,2868 <___vfprintf_internal_r+0x1a00>
    1790:	014000b4 	movhi	r5,2
    1794:	29612584 	addi	r5,r5,-31594
    1798:	dc402a15 	stw	r17,168(sp)
    179c:	d9402c15 	stw	r5,176(sp)
    17a0:	b023883a 	mov	r17,r22
    17a4:	04c001c4 	movi	r19,7
    17a8:	a82d883a 	mov	r22,r21
    17ac:	902b883a 	mov	r21,r18
    17b0:	8025883a 	mov	r18,r16
    17b4:	dc002d17 	ldw	r16,180(sp)
    17b8:	00000306 	br	17c8 <___vfprintf_internal_r+0x960>
    17bc:	8c7ffc04 	addi	r17,r17,-16
    17c0:	42000204 	addi	r8,r8,8
    17c4:	e440110e 	bge	fp,r17,180c <___vfprintf_internal_r+0x9a4>
    17c8:	18c00404 	addi	r3,r3,16
    17cc:	10800044 	addi	r2,r2,1
    17d0:	45000015 	stw	r20,0(r8)
    17d4:	47000115 	stw	fp,4(r8)
    17d8:	d8c02015 	stw	r3,128(sp)
    17dc:	d8801f15 	stw	r2,124(sp)
    17e0:	98bff60e 	bge	r19,r2,17bc <__alt_data_end+0xfffd17bc>
    17e4:	d9801e04 	addi	r6,sp,120
    17e8:	b80b883a 	mov	r5,r23
    17ec:	8009883a 	mov	r4,r16
    17f0:	00086480 	call	8648 <__sprint_r>
    17f4:	103ea01e 	bne	r2,zero,1278 <__alt_data_end+0xfffd1278>
    17f8:	8c7ffc04 	addi	r17,r17,-16
    17fc:	d8c02017 	ldw	r3,128(sp)
    1800:	d8801f17 	ldw	r2,124(sp)
    1804:	da000404 	addi	r8,sp,16
    1808:	e47fef16 	blt	fp,r17,17c8 <__alt_data_end+0xfffd17c8>
    180c:	9021883a 	mov	r16,r18
    1810:	a825883a 	mov	r18,r21
    1814:	b02b883a 	mov	r21,r22
    1818:	882d883a 	mov	r22,r17
    181c:	dc402a17 	ldw	r17,168(sp)
    1820:	d9002c17 	ldw	r4,176(sp)
    1824:	1d87883a 	add	r3,r3,r22
    1828:	10800044 	addi	r2,r2,1
    182c:	41000015 	stw	r4,0(r8)
    1830:	45800115 	stw	r22,4(r8)
    1834:	d8c02015 	stw	r3,128(sp)
    1838:	d8801f15 	stw	r2,124(sp)
    183c:	010001c4 	movi	r4,7
    1840:	20821016 	blt	r4,r2,2084 <___vfprintf_internal_r+0x121c>
    1844:	42000204 	addi	r8,r8,8
    1848:	9080400c 	andi	r2,r18,256
    184c:	10013a1e 	bne	r2,zero,1d38 <___vfprintf_internal_r+0xed0>
    1850:	d9402b17 	ldw	r5,172(sp)
    1854:	d8801f17 	ldw	r2,124(sp)
    1858:	44000015 	stw	r16,0(r8)
    185c:	1947883a 	add	r3,r3,r5
    1860:	10800044 	addi	r2,r2,1
    1864:	41400115 	stw	r5,4(r8)
    1868:	d8c02015 	stw	r3,128(sp)
    186c:	d8801f15 	stw	r2,124(sp)
    1870:	010001c4 	movi	r4,7
    1874:	2081f516 	blt	r4,r2,204c <___vfprintf_internal_r+0x11e4>
    1878:	42000204 	addi	r8,r8,8
    187c:	9480010c 	andi	r18,r18,4
    1880:	90003226 	beq	r18,zero,194c <___vfprintf_internal_r+0xae4>
    1884:	d9403117 	ldw	r5,196(sp)
    1888:	d8802917 	ldw	r2,164(sp)
    188c:	28a1c83a 	sub	r16,r5,r2
    1890:	04002e0e 	bge	zero,r16,194c <___vfprintf_internal_r+0xae4>
    1894:	04400404 	movi	r17,16
    1898:	d8801f17 	ldw	r2,124(sp)
    189c:	8c04c40e 	bge	r17,r16,2bb0 <___vfprintf_internal_r+0x1d48>
    18a0:	014000b4 	movhi	r5,2
    18a4:	29612984 	addi	r5,r5,-31578
    18a8:	d9403515 	stw	r5,212(sp)
    18ac:	048001c4 	movi	r18,7
    18b0:	dcc02d17 	ldw	r19,180(sp)
    18b4:	00000306 	br	18c4 <___vfprintf_internal_r+0xa5c>
    18b8:	843ffc04 	addi	r16,r16,-16
    18bc:	42000204 	addi	r8,r8,8
    18c0:	8c00130e 	bge	r17,r16,1910 <___vfprintf_internal_r+0xaa8>
    18c4:	010000b4 	movhi	r4,2
    18c8:	18c00404 	addi	r3,r3,16
    18cc:	10800044 	addi	r2,r2,1
    18d0:	21212984 	addi	r4,r4,-31578
    18d4:	41000015 	stw	r4,0(r8)
    18d8:	44400115 	stw	r17,4(r8)
    18dc:	d8c02015 	stw	r3,128(sp)
    18e0:	d8801f15 	stw	r2,124(sp)
    18e4:	90bff40e 	bge	r18,r2,18b8 <__alt_data_end+0xfffd18b8>
    18e8:	d9801e04 	addi	r6,sp,120
    18ec:	b80b883a 	mov	r5,r23
    18f0:	9809883a 	mov	r4,r19
    18f4:	00086480 	call	8648 <__sprint_r>
    18f8:	103e5f1e 	bne	r2,zero,1278 <__alt_data_end+0xfffd1278>
    18fc:	843ffc04 	addi	r16,r16,-16
    1900:	d8c02017 	ldw	r3,128(sp)
    1904:	d8801f17 	ldw	r2,124(sp)
    1908:	da000404 	addi	r8,sp,16
    190c:	8c3fed16 	blt	r17,r16,18c4 <__alt_data_end+0xfffd18c4>
    1910:	d9403517 	ldw	r5,212(sp)
    1914:	1c07883a 	add	r3,r3,r16
    1918:	10800044 	addi	r2,r2,1
    191c:	41400015 	stw	r5,0(r8)
    1920:	44000115 	stw	r16,4(r8)
    1924:	d8c02015 	stw	r3,128(sp)
    1928:	d8801f15 	stw	r2,124(sp)
    192c:	010001c4 	movi	r4,7
    1930:	2080060e 	bge	r4,r2,194c <___vfprintf_internal_r+0xae4>
    1934:	d9002d17 	ldw	r4,180(sp)
    1938:	d9801e04 	addi	r6,sp,120
    193c:	b80b883a 	mov	r5,r23
    1940:	00086480 	call	8648 <__sprint_r>
    1944:	103e4c1e 	bne	r2,zero,1278 <__alt_data_end+0xfffd1278>
    1948:	d8c02017 	ldw	r3,128(sp)
    194c:	d8803117 	ldw	r2,196(sp)
    1950:	d9002917 	ldw	r4,164(sp)
    1954:	1100010e 	bge	r2,r4,195c <___vfprintf_internal_r+0xaf4>
    1958:	2005883a 	mov	r2,r4
    195c:	d9402f17 	ldw	r5,188(sp)
    1960:	288b883a 	add	r5,r5,r2
    1964:	d9402f15 	stw	r5,188(sp)
    1968:	1801c01e 	bne	r3,zero,206c <___vfprintf_internal_r+0x1204>
    196c:	a8800007 	ldb	r2,0(r21)
    1970:	d8001f15 	stw	zero,124(sp)
    1974:	da000404 	addi	r8,sp,16
    1978:	103d751e 	bne	r2,zero,f50 <__alt_data_end+0xfffd0f50>
    197c:	a823883a 	mov	r17,r21
    1980:	003d8b06 	br	fb0 <__alt_data_end+0xfffd0fb0>
    1984:	8025883a 	mov	r18,r16
    1988:	dc002903 	ldbu	r16,164(sp)
    198c:	e011883a 	mov	r8,fp
    1990:	84003fcc 	andi	r16,r16,255
    1994:	8005e51e 	bne	r16,zero,312c <___vfprintf_internal_r+0x22c4>
    1998:	94800414 	ori	r18,r18,16
    199c:	9080080c 	andi	r2,r18,32
    19a0:	10022b26 	beq	r2,zero,2250 <___vfprintf_internal_r+0x13e8>
    19a4:	d9002e17 	ldw	r4,184(sp)
    19a8:	d9402a17 	ldw	r5,168(sp)
    19ac:	d8002785 	stb	zero,158(sp)
    19b0:	20c00204 	addi	r3,r4,8
    19b4:	24c00017 	ldw	r19,0(r4)
    19b8:	25800117 	ldw	r22,4(r4)
    19bc:	28042e16 	blt	r5,zero,2a78 <___vfprintf_internal_r+0x1c10>
    19c0:	013fdfc4 	movi	r4,-129
    19c4:	9d84b03a 	or	r2,r19,r22
    19c8:	d8c02e15 	stw	r3,184(sp)
    19cc:	9124703a 	and	r18,r18,r4
    19d0:	0039883a 	mov	fp,zero
    19d4:	103e801e 	bne	r2,zero,13d8 <__alt_data_end+0xfffd13d8>
    19d8:	d9002a17 	ldw	r4,168(sp)
    19dc:	2002e01e 	bne	r4,zero,2560 <___vfprintf_internal_r+0x16f8>
    19e0:	d8002a15 	stw	zero,168(sp)
    19e4:	d8002b15 	stw	zero,172(sp)
    19e8:	dc001e04 	addi	r16,sp,120
    19ec:	003ef506 	br	15c4 <__alt_data_end+0xfffd15c4>
    19f0:	8025883a 	mov	r18,r16
    19f4:	dc002903 	ldbu	r16,164(sp)
    19f8:	e011883a 	mov	r8,fp
    19fc:	84003fcc 	andi	r16,r16,255
    1a00:	8005ba1e 	bne	r16,zero,30ec <___vfprintf_internal_r+0x2284>
    1a04:	010000b4 	movhi	r4,2
    1a08:	21211904 	addi	r4,r4,-31644
    1a0c:	d9003915 	stw	r4,228(sp)
    1a10:	9080080c 	andi	r2,r18,32
    1a14:	10006126 	beq	r2,zero,1b9c <___vfprintf_internal_r+0xd34>
    1a18:	d9402e17 	ldw	r5,184(sp)
    1a1c:	2cc00017 	ldw	r19,0(r5)
    1a20:	2d800117 	ldw	r22,4(r5)
    1a24:	29400204 	addi	r5,r5,8
    1a28:	d9402e15 	stw	r5,184(sp)
    1a2c:	9080004c 	andi	r2,r18,1
    1a30:	1001ac26 	beq	r2,zero,20e4 <___vfprintf_internal_r+0x127c>
    1a34:	9d84b03a 	or	r2,r19,r22
    1a38:	10038526 	beq	r2,zero,2850 <___vfprintf_internal_r+0x19e8>
    1a3c:	d8c02a17 	ldw	r3,168(sp)
    1a40:	00800c04 	movi	r2,48
    1a44:	d8802705 	stb	r2,156(sp)
    1a48:	dc402745 	stb	r17,157(sp)
    1a4c:	d8002785 	stb	zero,158(sp)
    1a50:	90800094 	ori	r2,r18,2
    1a54:	18047916 	blt	r3,zero,2c3c <___vfprintf_internal_r+0x1dd4>
    1a58:	00bfdfc4 	movi	r2,-129
    1a5c:	90a4703a 	and	r18,r18,r2
    1a60:	94800094 	ori	r18,r18,2
    1a64:	0039883a 	mov	fp,zero
    1a68:	d9003917 	ldw	r4,228(sp)
    1a6c:	dc001e04 	addi	r16,sp,120
    1a70:	988003cc 	andi	r2,r19,15
    1a74:	b006973a 	slli	r3,r22,28
    1a78:	2085883a 	add	r2,r4,r2
    1a7c:	9826d13a 	srli	r19,r19,4
    1a80:	10800003 	ldbu	r2,0(r2)
    1a84:	b02cd13a 	srli	r22,r22,4
    1a88:	843fffc4 	addi	r16,r16,-1
    1a8c:	1ce6b03a 	or	r19,r3,r19
    1a90:	80800005 	stb	r2,0(r16)
    1a94:	9d84b03a 	or	r2,r19,r22
    1a98:	103ff51e 	bne	r2,zero,1a70 <__alt_data_end+0xfffd1a70>
    1a9c:	d8c02817 	ldw	r3,160(sp)
    1aa0:	1c07c83a 	sub	r3,r3,r16
    1aa4:	d8c02b15 	stw	r3,172(sp)
    1aa8:	003ec606 	br	15c4 <__alt_data_end+0xfffd15c4>
    1aac:	8025883a 	mov	r18,r16
    1ab0:	dc002903 	ldbu	r16,164(sp)
    1ab4:	e011883a 	mov	r8,fp
    1ab8:	84003fcc 	andi	r16,r16,255
    1abc:	803e9626 	beq	r16,zero,1518 <__alt_data_end+0xfffd1518>
    1ac0:	d8c02b03 	ldbu	r3,172(sp)
    1ac4:	d8c02785 	stb	r3,158(sp)
    1ac8:	003e9306 	br	1518 <__alt_data_end+0xfffd1518>
    1acc:	00c00044 	movi	r3,1
    1ad0:	d8c02905 	stb	r3,164(sp)
    1ad4:	00c00ac4 	movi	r3,43
    1ad8:	d8c02b05 	stb	r3,172(sp)
    1adc:	ac400007 	ldb	r17,0(r21)
    1ae0:	003d4306 	br	ff0 <__alt_data_end+0xfffd0ff0>
    1ae4:	84000814 	ori	r16,r16,32
    1ae8:	ac400007 	ldb	r17,0(r21)
    1aec:	003d4006 	br	ff0 <__alt_data_end+0xfffd0ff0>
    1af0:	d8802e17 	ldw	r2,184(sp)
    1af4:	8025883a 	mov	r18,r16
    1af8:	d8002785 	stb	zero,158(sp)
    1afc:	14000017 	ldw	r16,0(r2)
    1b00:	e011883a 	mov	r8,fp
    1b04:	14c00104 	addi	r19,r2,4
    1b08:	80042d26 	beq	r16,zero,2bc0 <___vfprintf_internal_r+0x1d58>
    1b0c:	d8c02a17 	ldw	r3,168(sp)
    1b10:	1803e416 	blt	r3,zero,2aa4 <___vfprintf_internal_r+0x1c3c>
    1b14:	180d883a 	mov	r6,r3
    1b18:	000b883a 	mov	r5,zero
    1b1c:	8009883a 	mov	r4,r16
    1b20:	df003d15 	stw	fp,244(sp)
    1b24:	00067a00 	call	67a0 <memchr>
    1b28:	da003d17 	ldw	r8,244(sp)
    1b2c:	10046826 	beq	r2,zero,2cd0 <___vfprintf_internal_r+0x1e68>
    1b30:	1405c83a 	sub	r2,r2,r16
    1b34:	d8802b15 	stw	r2,172(sp)
    1b38:	1003e016 	blt	r2,zero,2abc <___vfprintf_internal_r+0x1c54>
    1b3c:	df002783 	ldbu	fp,158(sp)
    1b40:	d8802915 	stw	r2,164(sp)
    1b44:	dcc02e15 	stw	r19,184(sp)
    1b48:	d8002a15 	stw	zero,168(sp)
    1b4c:	d8003215 	stw	zero,200(sp)
    1b50:	003ea206 	br	15dc <__alt_data_end+0xfffd15dc>
    1b54:	8025883a 	mov	r18,r16
    1b58:	dc002903 	ldbu	r16,164(sp)
    1b5c:	e011883a 	mov	r8,fp
    1b60:	84003fcc 	andi	r16,r16,255
    1b64:	803f8d26 	beq	r16,zero,199c <__alt_data_end+0xfffd199c>
    1b68:	d8c02b03 	ldbu	r3,172(sp)
    1b6c:	d8c02785 	stb	r3,158(sp)
    1b70:	003f8a06 	br	199c <__alt_data_end+0xfffd199c>
    1b74:	8025883a 	mov	r18,r16
    1b78:	dc002903 	ldbu	r16,164(sp)
    1b7c:	e011883a 	mov	r8,fp
    1b80:	84003fcc 	andi	r16,r16,255
    1b84:	8005661e 	bne	r16,zero,3120 <___vfprintf_internal_r+0x22b8>
    1b88:	010000b4 	movhi	r4,2
    1b8c:	21211e04 	addi	r4,r4,-31624
    1b90:	d9003915 	stw	r4,228(sp)
    1b94:	9080080c 	andi	r2,r18,32
    1b98:	103f9f1e 	bne	r2,zero,1a18 <__alt_data_end+0xfffd1a18>
    1b9c:	9080040c 	andi	r2,r18,16
    1ba0:	1002eb26 	beq	r2,zero,2750 <___vfprintf_internal_r+0x18e8>
    1ba4:	d8802e17 	ldw	r2,184(sp)
    1ba8:	002d883a 	mov	r22,zero
    1bac:	14c00017 	ldw	r19,0(r2)
    1bb0:	10800104 	addi	r2,r2,4
    1bb4:	d8802e15 	stw	r2,184(sp)
    1bb8:	003f9c06 	br	1a2c <__alt_data_end+0xfffd1a2c>
    1bbc:	d8802b07 	ldb	r2,172(sp)
    1bc0:	1002e11e 	bne	r2,zero,2748 <___vfprintf_internal_r+0x18e0>
    1bc4:	00c00044 	movi	r3,1
    1bc8:	d8c02905 	stb	r3,164(sp)
    1bcc:	00c00804 	movi	r3,32
    1bd0:	d8c02b05 	stb	r3,172(sp)
    1bd4:	ac400007 	ldb	r17,0(r21)
    1bd8:	003d0506 	br	ff0 <__alt_data_end+0xfffd0ff0>
    1bdc:	84000054 	ori	r16,r16,1
    1be0:	ac400007 	ldb	r17,0(r21)
    1be4:	003d0206 	br	ff0 <__alt_data_end+0xfffd0ff0>
    1be8:	8025883a 	mov	r18,r16
    1bec:	dc002903 	ldbu	r16,164(sp)
    1bf0:	e011883a 	mov	r8,fp
    1bf4:	84003fcc 	andi	r16,r16,255
    1bf8:	803de726 	beq	r16,zero,1398 <__alt_data_end+0xfffd1398>
    1bfc:	d8c02b03 	ldbu	r3,172(sp)
    1c00:	d8c02785 	stb	r3,158(sp)
    1c04:	003de406 	br	1398 <__alt_data_end+0xfffd1398>
    1c08:	84001014 	ori	r16,r16,64
    1c0c:	ac400007 	ldb	r17,0(r21)
    1c10:	003cf706 	br	ff0 <__alt_data_end+0xfffd0ff0>
    1c14:	ac400007 	ldb	r17,0(r21)
    1c18:	00801b04 	movi	r2,108
    1c1c:	88838f26 	beq	r17,r2,2a5c <___vfprintf_internal_r+0x1bf4>
    1c20:	84000414 	ori	r16,r16,16
    1c24:	003cf206 	br	ff0 <__alt_data_end+0xfffd0ff0>
    1c28:	8025883a 	mov	r18,r16
    1c2c:	dc002903 	ldbu	r16,164(sp)
    1c30:	e011883a 	mov	r8,fp
    1c34:	84003fcc 	andi	r16,r16,255
    1c38:	80053f1e 	bne	r16,zero,3138 <___vfprintf_internal_r+0x22d0>
    1c3c:	9080080c 	andi	r2,r18,32
    1c40:	1002d226 	beq	r2,zero,278c <___vfprintf_internal_r+0x1924>
    1c44:	d9002e17 	ldw	r4,184(sp)
    1c48:	d9402f17 	ldw	r5,188(sp)
    1c4c:	20800017 	ldw	r2,0(r4)
    1c50:	2807d7fa 	srai	r3,r5,31
    1c54:	21000104 	addi	r4,r4,4
    1c58:	d9002e15 	stw	r4,184(sp)
    1c5c:	11400015 	stw	r5,0(r2)
    1c60:	10c00115 	stw	r3,4(r2)
    1c64:	003cb806 	br	f48 <__alt_data_end+0xfffd0f48>
    1c68:	d8c02e17 	ldw	r3,184(sp)
    1c6c:	d9002e17 	ldw	r4,184(sp)
    1c70:	8025883a 	mov	r18,r16
    1c74:	18800017 	ldw	r2,0(r3)
    1c78:	21000104 	addi	r4,r4,4
    1c7c:	00c00044 	movi	r3,1
    1c80:	e011883a 	mov	r8,fp
    1c84:	d8c02915 	stw	r3,164(sp)
    1c88:	d8002785 	stb	zero,158(sp)
    1c8c:	d8801405 	stb	r2,80(sp)
    1c90:	d9002e15 	stw	r4,184(sp)
    1c94:	d8c02b15 	stw	r3,172(sp)
    1c98:	d8002a15 	stw	zero,168(sp)
    1c9c:	d8003215 	stw	zero,200(sp)
    1ca0:	dc001404 	addi	r16,sp,80
    1ca4:	0039883a 	mov	fp,zero
    1ca8:	003e5306 	br	15f8 <__alt_data_end+0xfffd15f8>
    1cac:	010000b4 	movhi	r4,2
    1cb0:	21211e04 	addi	r4,r4,-31624
    1cb4:	0039883a 	mov	fp,zero
    1cb8:	d9003915 	stw	r4,228(sp)
    1cbc:	04401e04 	movi	r17,120
    1cc0:	003f6906 	br	1a68 <__alt_data_end+0xfffd1a68>
    1cc4:	8025883a 	mov	r18,r16
    1cc8:	dc002903 	ldbu	r16,164(sp)
    1ccc:	e011883a 	mov	r8,fp
    1cd0:	84003fcc 	andi	r16,r16,255
    1cd4:	8005081e 	bne	r16,zero,30f8 <___vfprintf_internal_r+0x2290>
    1cd8:	883d6126 	beq	r17,zero,1260 <__alt_data_end+0xfffd1260>
    1cdc:	00c00044 	movi	r3,1
    1ce0:	d8c02915 	stw	r3,164(sp)
    1ce4:	dc401405 	stb	r17,80(sp)
    1ce8:	d8002785 	stb	zero,158(sp)
    1cec:	003fe906 	br	1c94 <__alt_data_end+0xfffd1c94>
    1cf0:	014000b4 	movhi	r5,2
    1cf4:	29611e04 	addi	r5,r5,-31624
    1cf8:	d9403915 	stw	r5,228(sp)
    1cfc:	d8c02e15 	stw	r3,184(sp)
    1d00:	1025883a 	mov	r18,r2
    1d04:	04401e04 	movi	r17,120
    1d08:	9d84b03a 	or	r2,r19,r22
    1d0c:	1000fc1e 	bne	r2,zero,2100 <___vfprintf_internal_r+0x1298>
    1d10:	0039883a 	mov	fp,zero
    1d14:	00800084 	movi	r2,2
    1d18:	10803fcc 	andi	r2,r2,255
    1d1c:	00c00044 	movi	r3,1
    1d20:	10c20f26 	beq	r2,r3,2560 <___vfprintf_internal_r+0x16f8>
    1d24:	00c00084 	movi	r3,2
    1d28:	10fd3326 	beq	r2,r3,11f8 <__alt_data_end+0xfffd11f8>
    1d2c:	003e0b06 	br	155c <__alt_data_end+0xfffd155c>
    1d30:	d8c02017 	ldw	r3,128(sp)
    1d34:	003e7106 	br	16fc <__alt_data_end+0xfffd16fc>
    1d38:	00801944 	movi	r2,101
    1d3c:	14407e0e 	bge	r2,r17,1f38 <___vfprintf_internal_r+0x10d0>
    1d40:	d9003617 	ldw	r4,216(sp)
    1d44:	d9403817 	ldw	r5,224(sp)
    1d48:	000d883a 	mov	r6,zero
    1d4c:	000f883a 	mov	r7,zero
    1d50:	d8c03c15 	stw	r3,240(sp)
    1d54:	da003d15 	stw	r8,244(sp)
    1d58:	000c5000 	call	c500 <__eqdf2>
    1d5c:	d8c03c17 	ldw	r3,240(sp)
    1d60:	da003d17 	ldw	r8,244(sp)
    1d64:	1000f71e 	bne	r2,zero,2144 <___vfprintf_internal_r+0x12dc>
    1d68:	d8801f17 	ldw	r2,124(sp)
    1d6c:	010000b4 	movhi	r4,2
    1d70:	21212504 	addi	r4,r4,-31596
    1d74:	18c00044 	addi	r3,r3,1
    1d78:	10800044 	addi	r2,r2,1
    1d7c:	41000015 	stw	r4,0(r8)
    1d80:	01000044 	movi	r4,1
    1d84:	41000115 	stw	r4,4(r8)
    1d88:	d8c02015 	stw	r3,128(sp)
    1d8c:	d8801f15 	stw	r2,124(sp)
    1d90:	010001c4 	movi	r4,7
    1d94:	2082b816 	blt	r4,r2,2878 <___vfprintf_internal_r+0x1a10>
    1d98:	42000204 	addi	r8,r8,8
    1d9c:	d8802617 	ldw	r2,152(sp)
    1da0:	d9403317 	ldw	r5,204(sp)
    1da4:	11400216 	blt	r2,r5,1db0 <___vfprintf_internal_r+0xf48>
    1da8:	9080004c 	andi	r2,r18,1
    1dac:	103eb326 	beq	r2,zero,187c <__alt_data_end+0xfffd187c>
    1db0:	d8803717 	ldw	r2,220(sp)
    1db4:	d9003417 	ldw	r4,208(sp)
    1db8:	d9403717 	ldw	r5,220(sp)
    1dbc:	1887883a 	add	r3,r3,r2
    1dc0:	d8801f17 	ldw	r2,124(sp)
    1dc4:	41000015 	stw	r4,0(r8)
    1dc8:	41400115 	stw	r5,4(r8)
    1dcc:	10800044 	addi	r2,r2,1
    1dd0:	d8c02015 	stw	r3,128(sp)
    1dd4:	d8801f15 	stw	r2,124(sp)
    1dd8:	010001c4 	movi	r4,7
    1ddc:	20832916 	blt	r4,r2,2a84 <___vfprintf_internal_r+0x1c1c>
    1de0:	42000204 	addi	r8,r8,8
    1de4:	d8803317 	ldw	r2,204(sp)
    1de8:	143fffc4 	addi	r16,r2,-1
    1dec:	043ea30e 	bge	zero,r16,187c <__alt_data_end+0xfffd187c>
    1df0:	04400404 	movi	r17,16
    1df4:	d8801f17 	ldw	r2,124(sp)
    1df8:	8c00880e 	bge	r17,r16,201c <___vfprintf_internal_r+0x11b4>
    1dfc:	014000b4 	movhi	r5,2
    1e00:	29612584 	addi	r5,r5,-31594
    1e04:	d9402c15 	stw	r5,176(sp)
    1e08:	058001c4 	movi	r22,7
    1e0c:	dcc02d17 	ldw	r19,180(sp)
    1e10:	00000306 	br	1e20 <___vfprintf_internal_r+0xfb8>
    1e14:	42000204 	addi	r8,r8,8
    1e18:	843ffc04 	addi	r16,r16,-16
    1e1c:	8c00820e 	bge	r17,r16,2028 <___vfprintf_internal_r+0x11c0>
    1e20:	18c00404 	addi	r3,r3,16
    1e24:	10800044 	addi	r2,r2,1
    1e28:	45000015 	stw	r20,0(r8)
    1e2c:	44400115 	stw	r17,4(r8)
    1e30:	d8c02015 	stw	r3,128(sp)
    1e34:	d8801f15 	stw	r2,124(sp)
    1e38:	b0bff60e 	bge	r22,r2,1e14 <__alt_data_end+0xfffd1e14>
    1e3c:	d9801e04 	addi	r6,sp,120
    1e40:	b80b883a 	mov	r5,r23
    1e44:	9809883a 	mov	r4,r19
    1e48:	00086480 	call	8648 <__sprint_r>
    1e4c:	103d0a1e 	bne	r2,zero,1278 <__alt_data_end+0xfffd1278>
    1e50:	d8c02017 	ldw	r3,128(sp)
    1e54:	d8801f17 	ldw	r2,124(sp)
    1e58:	da000404 	addi	r8,sp,16
    1e5c:	003fee06 	br	1e18 <__alt_data_end+0xfffd1e18>
    1e60:	d9403117 	ldw	r5,196(sp)
    1e64:	d8802917 	ldw	r2,164(sp)
    1e68:	28adc83a 	sub	r22,r5,r2
    1e6c:	05be410e 	bge	zero,r22,1774 <__alt_data_end+0xfffd1774>
    1e70:	07000404 	movi	fp,16
    1e74:	d8801f17 	ldw	r2,124(sp)
    1e78:	e5838f0e 	bge	fp,r22,2cb8 <___vfprintf_internal_r+0x1e50>
    1e7c:	014000b4 	movhi	r5,2
    1e80:	29612584 	addi	r5,r5,-31594
    1e84:	dc403015 	stw	r17,192(sp)
    1e88:	d9402c15 	stw	r5,176(sp)
    1e8c:	b023883a 	mov	r17,r22
    1e90:	04c001c4 	movi	r19,7
    1e94:	a82d883a 	mov	r22,r21
    1e98:	902b883a 	mov	r21,r18
    1e9c:	8025883a 	mov	r18,r16
    1ea0:	dc002d17 	ldw	r16,180(sp)
    1ea4:	00000306 	br	1eb4 <___vfprintf_internal_r+0x104c>
    1ea8:	8c7ffc04 	addi	r17,r17,-16
    1eac:	42000204 	addi	r8,r8,8
    1eb0:	e440110e 	bge	fp,r17,1ef8 <___vfprintf_internal_r+0x1090>
    1eb4:	18c00404 	addi	r3,r3,16
    1eb8:	10800044 	addi	r2,r2,1
    1ebc:	45000015 	stw	r20,0(r8)
    1ec0:	47000115 	stw	fp,4(r8)
    1ec4:	d8c02015 	stw	r3,128(sp)
    1ec8:	d8801f15 	stw	r2,124(sp)
    1ecc:	98bff60e 	bge	r19,r2,1ea8 <__alt_data_end+0xfffd1ea8>
    1ed0:	d9801e04 	addi	r6,sp,120
    1ed4:	b80b883a 	mov	r5,r23
    1ed8:	8009883a 	mov	r4,r16
    1edc:	00086480 	call	8648 <__sprint_r>
    1ee0:	103ce51e 	bne	r2,zero,1278 <__alt_data_end+0xfffd1278>
    1ee4:	8c7ffc04 	addi	r17,r17,-16
    1ee8:	d8c02017 	ldw	r3,128(sp)
    1eec:	d8801f17 	ldw	r2,124(sp)
    1ef0:	da000404 	addi	r8,sp,16
    1ef4:	e47fef16 	blt	fp,r17,1eb4 <__alt_data_end+0xfffd1eb4>
    1ef8:	9021883a 	mov	r16,r18
    1efc:	a825883a 	mov	r18,r21
    1f00:	b02b883a 	mov	r21,r22
    1f04:	882d883a 	mov	r22,r17
    1f08:	dc403017 	ldw	r17,192(sp)
    1f0c:	d9002c17 	ldw	r4,176(sp)
    1f10:	1d87883a 	add	r3,r3,r22
    1f14:	10800044 	addi	r2,r2,1
    1f18:	41000015 	stw	r4,0(r8)
    1f1c:	45800115 	stw	r22,4(r8)
    1f20:	d8c02015 	stw	r3,128(sp)
    1f24:	d8801f15 	stw	r2,124(sp)
    1f28:	010001c4 	movi	r4,7
    1f2c:	20818e16 	blt	r4,r2,2568 <___vfprintf_internal_r+0x1700>
    1f30:	42000204 	addi	r8,r8,8
    1f34:	003e0f06 	br	1774 <__alt_data_end+0xfffd1774>
    1f38:	d9403317 	ldw	r5,204(sp)
    1f3c:	00800044 	movi	r2,1
    1f40:	18c00044 	addi	r3,r3,1
    1f44:	1141530e 	bge	r2,r5,2494 <___vfprintf_internal_r+0x162c>
    1f48:	dc401f17 	ldw	r17,124(sp)
    1f4c:	00800044 	movi	r2,1
    1f50:	40800115 	stw	r2,4(r8)
    1f54:	8c400044 	addi	r17,r17,1
    1f58:	44000015 	stw	r16,0(r8)
    1f5c:	d8c02015 	stw	r3,128(sp)
    1f60:	dc401f15 	stw	r17,124(sp)
    1f64:	008001c4 	movi	r2,7
    1f68:	14416b16 	blt	r2,r17,2518 <___vfprintf_internal_r+0x16b0>
    1f6c:	42000204 	addi	r8,r8,8
    1f70:	d8803717 	ldw	r2,220(sp)
    1f74:	d9003417 	ldw	r4,208(sp)
    1f78:	8c400044 	addi	r17,r17,1
    1f7c:	10c7883a 	add	r3,r2,r3
    1f80:	40800115 	stw	r2,4(r8)
    1f84:	41000015 	stw	r4,0(r8)
    1f88:	d8c02015 	stw	r3,128(sp)
    1f8c:	dc401f15 	stw	r17,124(sp)
    1f90:	008001c4 	movi	r2,7
    1f94:	14416916 	blt	r2,r17,253c <___vfprintf_internal_r+0x16d4>
    1f98:	45800204 	addi	r22,r8,8
    1f9c:	d9003617 	ldw	r4,216(sp)
    1fa0:	d9403817 	ldw	r5,224(sp)
    1fa4:	000d883a 	mov	r6,zero
    1fa8:	000f883a 	mov	r7,zero
    1fac:	d8c03c15 	stw	r3,240(sp)
    1fb0:	000c5000 	call	c500 <__eqdf2>
    1fb4:	d8c03c17 	ldw	r3,240(sp)
    1fb8:	1000bc26 	beq	r2,zero,22ac <___vfprintf_internal_r+0x1444>
    1fbc:	d9403317 	ldw	r5,204(sp)
    1fc0:	84000044 	addi	r16,r16,1
    1fc4:	8c400044 	addi	r17,r17,1
    1fc8:	28bfffc4 	addi	r2,r5,-1
    1fcc:	1887883a 	add	r3,r3,r2
    1fd0:	b0800115 	stw	r2,4(r22)
    1fd4:	b4000015 	stw	r16,0(r22)
    1fd8:	d8c02015 	stw	r3,128(sp)
    1fdc:	dc401f15 	stw	r17,124(sp)
    1fe0:	008001c4 	movi	r2,7
    1fe4:	14414316 	blt	r2,r17,24f4 <___vfprintf_internal_r+0x168c>
    1fe8:	b5800204 	addi	r22,r22,8
    1fec:	d9003a17 	ldw	r4,232(sp)
    1ff0:	df0022c4 	addi	fp,sp,139
    1ff4:	8c400044 	addi	r17,r17,1
    1ff8:	20c7883a 	add	r3,r4,r3
    1ffc:	b7000015 	stw	fp,0(r22)
    2000:	b1000115 	stw	r4,4(r22)
    2004:	d8c02015 	stw	r3,128(sp)
    2008:	dc401f15 	stw	r17,124(sp)
    200c:	008001c4 	movi	r2,7
    2010:	14400e16 	blt	r2,r17,204c <___vfprintf_internal_r+0x11e4>
    2014:	b2000204 	addi	r8,r22,8
    2018:	003e1806 	br	187c <__alt_data_end+0xfffd187c>
    201c:	010000b4 	movhi	r4,2
    2020:	21212584 	addi	r4,r4,-31594
    2024:	d9002c15 	stw	r4,176(sp)
    2028:	d9002c17 	ldw	r4,176(sp)
    202c:	1c07883a 	add	r3,r3,r16
    2030:	44000115 	stw	r16,4(r8)
    2034:	41000015 	stw	r4,0(r8)
    2038:	10800044 	addi	r2,r2,1
    203c:	d8c02015 	stw	r3,128(sp)
    2040:	d8801f15 	stw	r2,124(sp)
    2044:	010001c4 	movi	r4,7
    2048:	20be0b0e 	bge	r4,r2,1878 <__alt_data_end+0xfffd1878>
    204c:	d9002d17 	ldw	r4,180(sp)
    2050:	d9801e04 	addi	r6,sp,120
    2054:	b80b883a 	mov	r5,r23
    2058:	00086480 	call	8648 <__sprint_r>
    205c:	103c861e 	bne	r2,zero,1278 <__alt_data_end+0xfffd1278>
    2060:	d8c02017 	ldw	r3,128(sp)
    2064:	da000404 	addi	r8,sp,16
    2068:	003e0406 	br	187c <__alt_data_end+0xfffd187c>
    206c:	d9002d17 	ldw	r4,180(sp)
    2070:	d9801e04 	addi	r6,sp,120
    2074:	b80b883a 	mov	r5,r23
    2078:	00086480 	call	8648 <__sprint_r>
    207c:	103e3b26 	beq	r2,zero,196c <__alt_data_end+0xfffd196c>
    2080:	003c7d06 	br	1278 <__alt_data_end+0xfffd1278>
    2084:	d9002d17 	ldw	r4,180(sp)
    2088:	d9801e04 	addi	r6,sp,120
    208c:	b80b883a 	mov	r5,r23
    2090:	00086480 	call	8648 <__sprint_r>
    2094:	103c781e 	bne	r2,zero,1278 <__alt_data_end+0xfffd1278>
    2098:	d8c02017 	ldw	r3,128(sp)
    209c:	da000404 	addi	r8,sp,16
    20a0:	003de906 	br	1848 <__alt_data_end+0xfffd1848>
    20a4:	d9002d17 	ldw	r4,180(sp)
    20a8:	d9801e04 	addi	r6,sp,120
    20ac:	b80b883a 	mov	r5,r23
    20b0:	00086480 	call	8648 <__sprint_r>
    20b4:	103c701e 	bne	r2,zero,1278 <__alt_data_end+0xfffd1278>
    20b8:	d8c02017 	ldw	r3,128(sp)
    20bc:	da000404 	addi	r8,sp,16
    20c0:	003d9b06 	br	1730 <__alt_data_end+0xfffd1730>
    20c4:	d9002d17 	ldw	r4,180(sp)
    20c8:	d9801e04 	addi	r6,sp,120
    20cc:	b80b883a 	mov	r5,r23
    20d0:	00086480 	call	8648 <__sprint_r>
    20d4:	103c681e 	bne	r2,zero,1278 <__alt_data_end+0xfffd1278>
    20d8:	d8c02017 	ldw	r3,128(sp)
    20dc:	da000404 	addi	r8,sp,16
    20e0:	003da106 	br	1768 <__alt_data_end+0xfffd1768>
    20e4:	d9402a17 	ldw	r5,168(sp)
    20e8:	d8002785 	stb	zero,158(sp)
    20ec:	283f0616 	blt	r5,zero,1d08 <__alt_data_end+0xfffd1d08>
    20f0:	00ffdfc4 	movi	r3,-129
    20f4:	9d84b03a 	or	r2,r19,r22
    20f8:	90e4703a 	and	r18,r18,r3
    20fc:	103c3b26 	beq	r2,zero,11ec <__alt_data_end+0xfffd11ec>
    2100:	0039883a 	mov	fp,zero
    2104:	003e5806 	br	1a68 <__alt_data_end+0xfffd1a68>
    2108:	9080040c 	andi	r2,r18,16
    210c:	1001b326 	beq	r2,zero,27dc <___vfprintf_internal_r+0x1974>
    2110:	d8c02e17 	ldw	r3,184(sp)
    2114:	d9002a17 	ldw	r4,168(sp)
    2118:	d8002785 	stb	zero,158(sp)
    211c:	18800104 	addi	r2,r3,4
    2120:	1cc00017 	ldw	r19,0(r3)
    2124:	002d883a 	mov	r22,zero
    2128:	2001b516 	blt	r4,zero,2800 <___vfprintf_internal_r+0x1998>
    212c:	00ffdfc4 	movi	r3,-129
    2130:	d8802e15 	stw	r2,184(sp)
    2134:	90e4703a 	and	r18,r18,r3
    2138:	983d0526 	beq	r19,zero,1550 <__alt_data_end+0xfffd1550>
    213c:	0039883a 	mov	fp,zero
    2140:	003d0806 	br	1564 <__alt_data_end+0xfffd1564>
    2144:	dc402617 	ldw	r17,152(sp)
    2148:	0441d30e 	bge	zero,r17,2898 <___vfprintf_internal_r+0x1a30>
    214c:	dc403217 	ldw	r17,200(sp)
    2150:	d8803317 	ldw	r2,204(sp)
    2154:	1440010e 	bge	r2,r17,215c <___vfprintf_internal_r+0x12f4>
    2158:	1023883a 	mov	r17,r2
    215c:	04400a0e 	bge	zero,r17,2188 <___vfprintf_internal_r+0x1320>
    2160:	d8801f17 	ldw	r2,124(sp)
    2164:	1c47883a 	add	r3,r3,r17
    2168:	44000015 	stw	r16,0(r8)
    216c:	10800044 	addi	r2,r2,1
    2170:	44400115 	stw	r17,4(r8)
    2174:	d8c02015 	stw	r3,128(sp)
    2178:	d8801f15 	stw	r2,124(sp)
    217c:	010001c4 	movi	r4,7
    2180:	20826516 	blt	r4,r2,2b18 <___vfprintf_internal_r+0x1cb0>
    2184:	42000204 	addi	r8,r8,8
    2188:	88026116 	blt	r17,zero,2b10 <___vfprintf_internal_r+0x1ca8>
    218c:	d9003217 	ldw	r4,200(sp)
    2190:	2463c83a 	sub	r17,r4,r17
    2194:	04407b0e 	bge	zero,r17,2384 <___vfprintf_internal_r+0x151c>
    2198:	05800404 	movi	r22,16
    219c:	d8801f17 	ldw	r2,124(sp)
    21a0:	b4419d0e 	bge	r22,r17,2818 <___vfprintf_internal_r+0x19b0>
    21a4:	010000b4 	movhi	r4,2
    21a8:	21212584 	addi	r4,r4,-31594
    21ac:	d9002c15 	stw	r4,176(sp)
    21b0:	070001c4 	movi	fp,7
    21b4:	dcc02d17 	ldw	r19,180(sp)
    21b8:	00000306 	br	21c8 <___vfprintf_internal_r+0x1360>
    21bc:	42000204 	addi	r8,r8,8
    21c0:	8c7ffc04 	addi	r17,r17,-16
    21c4:	b441970e 	bge	r22,r17,2824 <___vfprintf_internal_r+0x19bc>
    21c8:	18c00404 	addi	r3,r3,16
    21cc:	10800044 	addi	r2,r2,1
    21d0:	45000015 	stw	r20,0(r8)
    21d4:	45800115 	stw	r22,4(r8)
    21d8:	d8c02015 	stw	r3,128(sp)
    21dc:	d8801f15 	stw	r2,124(sp)
    21e0:	e0bff60e 	bge	fp,r2,21bc <__alt_data_end+0xfffd21bc>
    21e4:	d9801e04 	addi	r6,sp,120
    21e8:	b80b883a 	mov	r5,r23
    21ec:	9809883a 	mov	r4,r19
    21f0:	00086480 	call	8648 <__sprint_r>
    21f4:	103c201e 	bne	r2,zero,1278 <__alt_data_end+0xfffd1278>
    21f8:	d8c02017 	ldw	r3,128(sp)
    21fc:	d8801f17 	ldw	r2,124(sp)
    2200:	da000404 	addi	r8,sp,16
    2204:	003fee06 	br	21c0 <__alt_data_end+0xfffd21c0>
    2208:	d9002d17 	ldw	r4,180(sp)
    220c:	d9801e04 	addi	r6,sp,120
    2210:	b80b883a 	mov	r5,r23
    2214:	00086480 	call	8648 <__sprint_r>
    2218:	103c171e 	bne	r2,zero,1278 <__alt_data_end+0xfffd1278>
    221c:	d8c02017 	ldw	r3,128(sp)
    2220:	df002787 	ldb	fp,158(sp)
    2224:	da000404 	addi	r8,sp,16
    2228:	003d3406 	br	16fc <__alt_data_end+0xfffd16fc>
    222c:	9080040c 	andi	r2,r18,16
    2230:	10016126 	beq	r2,zero,27b8 <___vfprintf_internal_r+0x1950>
    2234:	d9402e17 	ldw	r5,184(sp)
    2238:	2cc00017 	ldw	r19,0(r5)
    223c:	29400104 	addi	r5,r5,4
    2240:	d9402e15 	stw	r5,184(sp)
    2244:	982dd7fa 	srai	r22,r19,31
    2248:	b005883a 	mov	r2,r22
    224c:	003c5a06 	br	13b8 <__alt_data_end+0xfffd13b8>
    2250:	9080040c 	andi	r2,r18,16
    2254:	10003526 	beq	r2,zero,232c <___vfprintf_internal_r+0x14c4>
    2258:	d8c02e17 	ldw	r3,184(sp)
    225c:	d9002a17 	ldw	r4,168(sp)
    2260:	d8002785 	stb	zero,158(sp)
    2264:	18800104 	addi	r2,r3,4
    2268:	1cc00017 	ldw	r19,0(r3)
    226c:	002d883a 	mov	r22,zero
    2270:	20003716 	blt	r4,zero,2350 <___vfprintf_internal_r+0x14e8>
    2274:	00ffdfc4 	movi	r3,-129
    2278:	d8802e15 	stw	r2,184(sp)
    227c:	90e4703a 	and	r18,r18,r3
    2280:	0039883a 	mov	fp,zero
    2284:	983dd426 	beq	r19,zero,19d8 <__alt_data_end+0xfffd19d8>
    2288:	00800244 	movi	r2,9
    228c:	14fc5336 	bltu	r2,r19,13dc <__alt_data_end+0xfffd13dc>
    2290:	d8c02817 	ldw	r3,160(sp)
    2294:	dc001dc4 	addi	r16,sp,119
    2298:	9cc00c04 	addi	r19,r19,48
    229c:	1c07c83a 	sub	r3,r3,r16
    22a0:	dcc01dc5 	stb	r19,119(sp)
    22a4:	d8c02b15 	stw	r3,172(sp)
    22a8:	003cc606 	br	15c4 <__alt_data_end+0xfffd15c4>
    22ac:	d8803317 	ldw	r2,204(sp)
    22b0:	143fffc4 	addi	r16,r2,-1
    22b4:	043f4d0e 	bge	zero,r16,1fec <__alt_data_end+0xfffd1fec>
    22b8:	07000404 	movi	fp,16
    22bc:	e400810e 	bge	fp,r16,24c4 <___vfprintf_internal_r+0x165c>
    22c0:	014000b4 	movhi	r5,2
    22c4:	29612584 	addi	r5,r5,-31594
    22c8:	d9402c15 	stw	r5,176(sp)
    22cc:	01c001c4 	movi	r7,7
    22d0:	dcc02d17 	ldw	r19,180(sp)
    22d4:	00000306 	br	22e4 <___vfprintf_internal_r+0x147c>
    22d8:	b5800204 	addi	r22,r22,8
    22dc:	843ffc04 	addi	r16,r16,-16
    22e0:	e4007b0e 	bge	fp,r16,24d0 <___vfprintf_internal_r+0x1668>
    22e4:	18c00404 	addi	r3,r3,16
    22e8:	8c400044 	addi	r17,r17,1
    22ec:	b5000015 	stw	r20,0(r22)
    22f0:	b7000115 	stw	fp,4(r22)
    22f4:	d8c02015 	stw	r3,128(sp)
    22f8:	dc401f15 	stw	r17,124(sp)
    22fc:	3c7ff60e 	bge	r7,r17,22d8 <__alt_data_end+0xfffd22d8>
    2300:	d9801e04 	addi	r6,sp,120
    2304:	b80b883a 	mov	r5,r23
    2308:	9809883a 	mov	r4,r19
    230c:	d9c03c15 	stw	r7,240(sp)
    2310:	00086480 	call	8648 <__sprint_r>
    2314:	d9c03c17 	ldw	r7,240(sp)
    2318:	103bd71e 	bne	r2,zero,1278 <__alt_data_end+0xfffd1278>
    231c:	d8c02017 	ldw	r3,128(sp)
    2320:	dc401f17 	ldw	r17,124(sp)
    2324:	dd800404 	addi	r22,sp,16
    2328:	003fec06 	br	22dc <__alt_data_end+0xfffd22dc>
    232c:	9080100c 	andi	r2,r18,64
    2330:	d8002785 	stb	zero,158(sp)
    2334:	10010e26 	beq	r2,zero,2770 <___vfprintf_internal_r+0x1908>
    2338:	d9402e17 	ldw	r5,184(sp)
    233c:	d8c02a17 	ldw	r3,168(sp)
    2340:	002d883a 	mov	r22,zero
    2344:	28800104 	addi	r2,r5,4
    2348:	2cc0000b 	ldhu	r19,0(r5)
    234c:	183fc90e 	bge	r3,zero,2274 <__alt_data_end+0xfffd2274>
    2350:	d8802e15 	stw	r2,184(sp)
    2354:	0039883a 	mov	fp,zero
    2358:	9d84b03a 	or	r2,r19,r22
    235c:	103c1e1e 	bne	r2,zero,13d8 <__alt_data_end+0xfffd13d8>
    2360:	00800044 	movi	r2,1
    2364:	003e6c06 	br	1d18 <__alt_data_end+0xfffd1d18>
    2368:	d9002d17 	ldw	r4,180(sp)
    236c:	d9801e04 	addi	r6,sp,120
    2370:	b80b883a 	mov	r5,r23
    2374:	00086480 	call	8648 <__sprint_r>
    2378:	103bbf1e 	bne	r2,zero,1278 <__alt_data_end+0xfffd1278>
    237c:	d8c02017 	ldw	r3,128(sp)
    2380:	da000404 	addi	r8,sp,16
    2384:	d9003217 	ldw	r4,200(sp)
    2388:	d8802617 	ldw	r2,152(sp)
    238c:	d9403317 	ldw	r5,204(sp)
    2390:	8123883a 	add	r17,r16,r4
    2394:	11400216 	blt	r2,r5,23a0 <___vfprintf_internal_r+0x1538>
    2398:	9100004c 	andi	r4,r18,1
    239c:	20000d26 	beq	r4,zero,23d4 <___vfprintf_internal_r+0x156c>
    23a0:	d9003717 	ldw	r4,220(sp)
    23a4:	d9403417 	ldw	r5,208(sp)
    23a8:	1907883a 	add	r3,r3,r4
    23ac:	d9001f17 	ldw	r4,124(sp)
    23b0:	41400015 	stw	r5,0(r8)
    23b4:	d9403717 	ldw	r5,220(sp)
    23b8:	21000044 	addi	r4,r4,1
    23bc:	d8c02015 	stw	r3,128(sp)
    23c0:	41400115 	stw	r5,4(r8)
    23c4:	d9001f15 	stw	r4,124(sp)
    23c8:	014001c4 	movi	r5,7
    23cc:	2901e816 	blt	r5,r4,2b70 <___vfprintf_internal_r+0x1d08>
    23d0:	42000204 	addi	r8,r8,8
    23d4:	d9003317 	ldw	r4,204(sp)
    23d8:	8121883a 	add	r16,r16,r4
    23dc:	2085c83a 	sub	r2,r4,r2
    23e0:	8461c83a 	sub	r16,r16,r17
    23e4:	1400010e 	bge	r2,r16,23ec <___vfprintf_internal_r+0x1584>
    23e8:	1021883a 	mov	r16,r2
    23ec:	04000a0e 	bge	zero,r16,2418 <___vfprintf_internal_r+0x15b0>
    23f0:	d9001f17 	ldw	r4,124(sp)
    23f4:	1c07883a 	add	r3,r3,r16
    23f8:	44400015 	stw	r17,0(r8)
    23fc:	21000044 	addi	r4,r4,1
    2400:	44000115 	stw	r16,4(r8)
    2404:	d8c02015 	stw	r3,128(sp)
    2408:	d9001f15 	stw	r4,124(sp)
    240c:	014001c4 	movi	r5,7
    2410:	2901fb16 	blt	r5,r4,2c00 <___vfprintf_internal_r+0x1d98>
    2414:	42000204 	addi	r8,r8,8
    2418:	8001f716 	blt	r16,zero,2bf8 <___vfprintf_internal_r+0x1d90>
    241c:	1421c83a 	sub	r16,r2,r16
    2420:	043d160e 	bge	zero,r16,187c <__alt_data_end+0xfffd187c>
    2424:	04400404 	movi	r17,16
    2428:	d8801f17 	ldw	r2,124(sp)
    242c:	8c3efb0e 	bge	r17,r16,201c <__alt_data_end+0xfffd201c>
    2430:	014000b4 	movhi	r5,2
    2434:	29612584 	addi	r5,r5,-31594
    2438:	d9402c15 	stw	r5,176(sp)
    243c:	058001c4 	movi	r22,7
    2440:	dcc02d17 	ldw	r19,180(sp)
    2444:	00000306 	br	2454 <___vfprintf_internal_r+0x15ec>
    2448:	42000204 	addi	r8,r8,8
    244c:	843ffc04 	addi	r16,r16,-16
    2450:	8c3ef50e 	bge	r17,r16,2028 <__alt_data_end+0xfffd2028>
    2454:	18c00404 	addi	r3,r3,16
    2458:	10800044 	addi	r2,r2,1
    245c:	45000015 	stw	r20,0(r8)
    2460:	44400115 	stw	r17,4(r8)
    2464:	d8c02015 	stw	r3,128(sp)
    2468:	d8801f15 	stw	r2,124(sp)
    246c:	b0bff60e 	bge	r22,r2,2448 <__alt_data_end+0xfffd2448>
    2470:	d9801e04 	addi	r6,sp,120
    2474:	b80b883a 	mov	r5,r23
    2478:	9809883a 	mov	r4,r19
    247c:	00086480 	call	8648 <__sprint_r>
    2480:	103b7d1e 	bne	r2,zero,1278 <__alt_data_end+0xfffd1278>
    2484:	d8c02017 	ldw	r3,128(sp)
    2488:	d8801f17 	ldw	r2,124(sp)
    248c:	da000404 	addi	r8,sp,16
    2490:	003fee06 	br	244c <__alt_data_end+0xfffd244c>
    2494:	9088703a 	and	r4,r18,r2
    2498:	203eab1e 	bne	r4,zero,1f48 <__alt_data_end+0xfffd1f48>
    249c:	dc401f17 	ldw	r17,124(sp)
    24a0:	40800115 	stw	r2,4(r8)
    24a4:	44000015 	stw	r16,0(r8)
    24a8:	8c400044 	addi	r17,r17,1
    24ac:	d8c02015 	stw	r3,128(sp)
    24b0:	dc401f15 	stw	r17,124(sp)
    24b4:	008001c4 	movi	r2,7
    24b8:	14400e16 	blt	r2,r17,24f4 <___vfprintf_internal_r+0x168c>
    24bc:	45800204 	addi	r22,r8,8
    24c0:	003eca06 	br	1fec <__alt_data_end+0xfffd1fec>
    24c4:	010000b4 	movhi	r4,2
    24c8:	21212584 	addi	r4,r4,-31594
    24cc:	d9002c15 	stw	r4,176(sp)
    24d0:	d8802c17 	ldw	r2,176(sp)
    24d4:	1c07883a 	add	r3,r3,r16
    24d8:	8c400044 	addi	r17,r17,1
    24dc:	b0800015 	stw	r2,0(r22)
    24e0:	b4000115 	stw	r16,4(r22)
    24e4:	d8c02015 	stw	r3,128(sp)
    24e8:	dc401f15 	stw	r17,124(sp)
    24ec:	008001c4 	movi	r2,7
    24f0:	147ebd0e 	bge	r2,r17,1fe8 <__alt_data_end+0xfffd1fe8>
    24f4:	d9002d17 	ldw	r4,180(sp)
    24f8:	d9801e04 	addi	r6,sp,120
    24fc:	b80b883a 	mov	r5,r23
    2500:	00086480 	call	8648 <__sprint_r>
    2504:	103b5c1e 	bne	r2,zero,1278 <__alt_data_end+0xfffd1278>
    2508:	d8c02017 	ldw	r3,128(sp)
    250c:	dc401f17 	ldw	r17,124(sp)
    2510:	dd800404 	addi	r22,sp,16
    2514:	003eb506 	br	1fec <__alt_data_end+0xfffd1fec>
    2518:	d9002d17 	ldw	r4,180(sp)
    251c:	d9801e04 	addi	r6,sp,120
    2520:	b80b883a 	mov	r5,r23
    2524:	00086480 	call	8648 <__sprint_r>
    2528:	103b531e 	bne	r2,zero,1278 <__alt_data_end+0xfffd1278>
    252c:	d8c02017 	ldw	r3,128(sp)
    2530:	dc401f17 	ldw	r17,124(sp)
    2534:	da000404 	addi	r8,sp,16
    2538:	003e8d06 	br	1f70 <__alt_data_end+0xfffd1f70>
    253c:	d9002d17 	ldw	r4,180(sp)
    2540:	d9801e04 	addi	r6,sp,120
    2544:	b80b883a 	mov	r5,r23
    2548:	00086480 	call	8648 <__sprint_r>
    254c:	103b4a1e 	bne	r2,zero,1278 <__alt_data_end+0xfffd1278>
    2550:	d8c02017 	ldw	r3,128(sp)
    2554:	dc401f17 	ldw	r17,124(sp)
    2558:	dd800404 	addi	r22,sp,16
    255c:	003e8f06 	br	1f9c <__alt_data_end+0xfffd1f9c>
    2560:	0027883a 	mov	r19,zero
    2564:	003f4a06 	br	2290 <__alt_data_end+0xfffd2290>
    2568:	d9002d17 	ldw	r4,180(sp)
    256c:	d9801e04 	addi	r6,sp,120
    2570:	b80b883a 	mov	r5,r23
    2574:	00086480 	call	8648 <__sprint_r>
    2578:	103b3f1e 	bne	r2,zero,1278 <__alt_data_end+0xfffd1278>
    257c:	d8c02017 	ldw	r3,128(sp)
    2580:	da000404 	addi	r8,sp,16
    2584:	003c7b06 	br	1774 <__alt_data_end+0xfffd1774>
    2588:	d9402a17 	ldw	r5,168(sp)
    258c:	04e7c83a 	sub	r19,zero,r19
    2590:	07000b44 	movi	fp,45
    2594:	9804c03a 	cmpne	r2,r19,zero
    2598:	05adc83a 	sub	r22,zero,r22
    259c:	df002785 	stb	fp,158(sp)
    25a0:	b0adc83a 	sub	r22,r22,r2
    25a4:	28017b16 	blt	r5,zero,2b94 <___vfprintf_internal_r+0x1d2c>
    25a8:	00bfdfc4 	movi	r2,-129
    25ac:	90a4703a 	and	r18,r18,r2
    25b0:	003b8906 	br	13d8 <__alt_data_end+0xfffd13d8>
    25b4:	d9003617 	ldw	r4,216(sp)
    25b8:	d9403817 	ldw	r5,224(sp)
    25bc:	da003d15 	stw	r8,244(sp)
    25c0:	000826c0 	call	826c <__fpclassifyd>
    25c4:	da003d17 	ldw	r8,244(sp)
    25c8:	1000f026 	beq	r2,zero,298c <___vfprintf_internal_r+0x1b24>
    25cc:	d9002a17 	ldw	r4,168(sp)
    25d0:	05bff7c4 	movi	r22,-33
    25d4:	00bfffc4 	movi	r2,-1
    25d8:	8dac703a 	and	r22,r17,r22
    25dc:	20820026 	beq	r4,r2,2de0 <___vfprintf_internal_r+0x1f78>
    25e0:	008011c4 	movi	r2,71
    25e4:	b081f726 	beq	r22,r2,2dc4 <___vfprintf_internal_r+0x1f5c>
    25e8:	d9003817 	ldw	r4,224(sp)
    25ec:	90c04014 	ori	r3,r18,256
    25f0:	d8c02c15 	stw	r3,176(sp)
    25f4:	20021516 	blt	r4,zero,2e4c <___vfprintf_internal_r+0x1fe4>
    25f8:	dcc03817 	ldw	r19,224(sp)
    25fc:	d8002905 	stb	zero,164(sp)
    2600:	00801984 	movi	r2,102
    2604:	8881f926 	beq	r17,r2,2dec <___vfprintf_internal_r+0x1f84>
    2608:	00801184 	movi	r2,70
    260c:	88821c26 	beq	r17,r2,2e80 <___vfprintf_internal_r+0x2018>
    2610:	00801144 	movi	r2,69
    2614:	b081ef26 	beq	r22,r2,2dd4 <___vfprintf_internal_r+0x1f6c>
    2618:	d8c02a17 	ldw	r3,168(sp)
    261c:	d8802104 	addi	r2,sp,132
    2620:	d8800315 	stw	r2,12(sp)
    2624:	d9403617 	ldw	r5,216(sp)
    2628:	d8802504 	addi	r2,sp,148
    262c:	d9002d17 	ldw	r4,180(sp)
    2630:	d8800215 	stw	r2,8(sp)
    2634:	d8802604 	addi	r2,sp,152
    2638:	d8c00015 	stw	r3,0(sp)
    263c:	d8800115 	stw	r2,4(sp)
    2640:	01c00084 	movi	r7,2
    2644:	980d883a 	mov	r6,r19
    2648:	d8c03c15 	stw	r3,240(sp)
    264c:	da003d15 	stw	r8,244(sp)
    2650:	00035980 	call	3598 <_dtoa_r>
    2654:	1021883a 	mov	r16,r2
    2658:	008019c4 	movi	r2,103
    265c:	d8c03c17 	ldw	r3,240(sp)
    2660:	da003d17 	ldw	r8,244(sp)
    2664:	88817126 	beq	r17,r2,2c2c <___vfprintf_internal_r+0x1dc4>
    2668:	008011c4 	movi	r2,71
    266c:	88829126 	beq	r17,r2,30b4 <___vfprintf_internal_r+0x224c>
    2670:	80f9883a 	add	fp,r16,r3
    2674:	d9003617 	ldw	r4,216(sp)
    2678:	000d883a 	mov	r6,zero
    267c:	000f883a 	mov	r7,zero
    2680:	980b883a 	mov	r5,r19
    2684:	da003d15 	stw	r8,244(sp)
    2688:	000c5000 	call	c500 <__eqdf2>
    268c:	da003d17 	ldw	r8,244(sp)
    2690:	10018d26 	beq	r2,zero,2cc8 <___vfprintf_internal_r+0x1e60>
    2694:	d8802117 	ldw	r2,132(sp)
    2698:	1700062e 	bgeu	r2,fp,26b4 <___vfprintf_internal_r+0x184c>
    269c:	01000c04 	movi	r4,48
    26a0:	10c00044 	addi	r3,r2,1
    26a4:	d8c02115 	stw	r3,132(sp)
    26a8:	11000005 	stb	r4,0(r2)
    26ac:	d8802117 	ldw	r2,132(sp)
    26b0:	173ffb36 	bltu	r2,fp,26a0 <__alt_data_end+0xfffd26a0>
    26b4:	1405c83a 	sub	r2,r2,r16
    26b8:	d8803315 	stw	r2,204(sp)
    26bc:	008011c4 	movi	r2,71
    26c0:	b0817626 	beq	r22,r2,2c9c <___vfprintf_internal_r+0x1e34>
    26c4:	00801944 	movi	r2,101
    26c8:	1442800e 	bge	r2,r17,30cc <___vfprintf_internal_r+0x2264>
    26cc:	d8c02617 	ldw	r3,152(sp)
    26d0:	00801984 	movi	r2,102
    26d4:	d8c03215 	stw	r3,200(sp)
    26d8:	8881fe26 	beq	r17,r2,2ed4 <___vfprintf_internal_r+0x206c>
    26dc:	d8c03217 	ldw	r3,200(sp)
    26e0:	d9003317 	ldw	r4,204(sp)
    26e4:	1901dd16 	blt	r3,r4,2e5c <___vfprintf_internal_r+0x1ff4>
    26e8:	9480004c 	andi	r18,r18,1
    26ec:	90022b1e 	bne	r18,zero,2f9c <___vfprintf_internal_r+0x2134>
    26f0:	1805883a 	mov	r2,r3
    26f4:	18028316 	blt	r3,zero,3104 <___vfprintf_internal_r+0x229c>
    26f8:	d8c03217 	ldw	r3,200(sp)
    26fc:	044019c4 	movi	r17,103
    2700:	d8c02b15 	stw	r3,172(sp)
    2704:	df002907 	ldb	fp,164(sp)
    2708:	e001531e 	bne	fp,zero,2c58 <___vfprintf_internal_r+0x1df0>
    270c:	df002783 	ldbu	fp,158(sp)
    2710:	d8802915 	stw	r2,164(sp)
    2714:	dc802c17 	ldw	r18,176(sp)
    2718:	d8002a15 	stw	zero,168(sp)
    271c:	003baf06 	br	15dc <__alt_data_end+0xfffd15dc>
    2720:	d8c02e17 	ldw	r3,184(sp)
    2724:	d9002e17 	ldw	r4,184(sp)
    2728:	d9402e17 	ldw	r5,184(sp)
    272c:	18c00017 	ldw	r3,0(r3)
    2730:	21000117 	ldw	r4,4(r4)
    2734:	29400204 	addi	r5,r5,8
    2738:	d8c03615 	stw	r3,216(sp)
    273c:	d9003815 	stw	r4,224(sp)
    2740:	d9402e15 	stw	r5,184(sp)
    2744:	003b5006 	br	1488 <__alt_data_end+0xfffd1488>
    2748:	ac400007 	ldb	r17,0(r21)
    274c:	003a2806 	br	ff0 <__alt_data_end+0xfffd0ff0>
    2750:	9080100c 	andi	r2,r18,64
    2754:	1000a826 	beq	r2,zero,29f8 <___vfprintf_internal_r+0x1b90>
    2758:	d8c02e17 	ldw	r3,184(sp)
    275c:	002d883a 	mov	r22,zero
    2760:	1cc0000b 	ldhu	r19,0(r3)
    2764:	18c00104 	addi	r3,r3,4
    2768:	d8c02e15 	stw	r3,184(sp)
    276c:	003caf06 	br	1a2c <__alt_data_end+0xfffd1a2c>
    2770:	d9002e17 	ldw	r4,184(sp)
    2774:	d9402a17 	ldw	r5,168(sp)
    2778:	002d883a 	mov	r22,zero
    277c:	20800104 	addi	r2,r4,4
    2780:	24c00017 	ldw	r19,0(r4)
    2784:	283ebb0e 	bge	r5,zero,2274 <__alt_data_end+0xfffd2274>
    2788:	003ef106 	br	2350 <__alt_data_end+0xfffd2350>
    278c:	9080040c 	andi	r2,r18,16
    2790:	1000921e 	bne	r2,zero,29dc <___vfprintf_internal_r+0x1b74>
    2794:	9480100c 	andi	r18,r18,64
    2798:	90013926 	beq	r18,zero,2c80 <___vfprintf_internal_r+0x1e18>
    279c:	d9402e17 	ldw	r5,184(sp)
    27a0:	d8c02f17 	ldw	r3,188(sp)
    27a4:	28800017 	ldw	r2,0(r5)
    27a8:	29400104 	addi	r5,r5,4
    27ac:	d9402e15 	stw	r5,184(sp)
    27b0:	10c0000d 	sth	r3,0(r2)
    27b4:	0039e406 	br	f48 <__alt_data_end+0xfffd0f48>
    27b8:	9080100c 	andi	r2,r18,64
    27bc:	10008026 	beq	r2,zero,29c0 <___vfprintf_internal_r+0x1b58>
    27c0:	d8802e17 	ldw	r2,184(sp)
    27c4:	14c0000f 	ldh	r19,0(r2)
    27c8:	10800104 	addi	r2,r2,4
    27cc:	d8802e15 	stw	r2,184(sp)
    27d0:	982dd7fa 	srai	r22,r19,31
    27d4:	b005883a 	mov	r2,r22
    27d8:	003af706 	br	13b8 <__alt_data_end+0xfffd13b8>
    27dc:	9080100c 	andi	r2,r18,64
    27e0:	d8002785 	stb	zero,158(sp)
    27e4:	10008a1e 	bne	r2,zero,2a10 <___vfprintf_internal_r+0x1ba8>
    27e8:	d9002e17 	ldw	r4,184(sp)
    27ec:	d9402a17 	ldw	r5,168(sp)
    27f0:	002d883a 	mov	r22,zero
    27f4:	20800104 	addi	r2,r4,4
    27f8:	24c00017 	ldw	r19,0(r4)
    27fc:	283e4b0e 	bge	r5,zero,212c <__alt_data_end+0xfffd212c>
    2800:	9d86b03a 	or	r3,r19,r22
    2804:	d8802e15 	stw	r2,184(sp)
    2808:	183e4c1e 	bne	r3,zero,213c <__alt_data_end+0xfffd213c>
    280c:	0039883a 	mov	fp,zero
    2810:	0005883a 	mov	r2,zero
    2814:	003d4006 	br	1d18 <__alt_data_end+0xfffd1d18>
    2818:	014000b4 	movhi	r5,2
    281c:	29612584 	addi	r5,r5,-31594
    2820:	d9402c15 	stw	r5,176(sp)
    2824:	d9402c17 	ldw	r5,176(sp)
    2828:	1c47883a 	add	r3,r3,r17
    282c:	10800044 	addi	r2,r2,1
    2830:	41400015 	stw	r5,0(r8)
    2834:	44400115 	stw	r17,4(r8)
    2838:	d8c02015 	stw	r3,128(sp)
    283c:	d8801f15 	stw	r2,124(sp)
    2840:	010001c4 	movi	r4,7
    2844:	20bec816 	blt	r4,r2,2368 <__alt_data_end+0xfffd2368>
    2848:	42000204 	addi	r8,r8,8
    284c:	003ecd06 	br	2384 <__alt_data_end+0xfffd2384>
    2850:	d9002a17 	ldw	r4,168(sp)
    2854:	d8002785 	stb	zero,158(sp)
    2858:	203d2d16 	blt	r4,zero,1d10 <__alt_data_end+0xfffd1d10>
    285c:	00bfdfc4 	movi	r2,-129
    2860:	90a4703a 	and	r18,r18,r2
    2864:	003a6106 	br	11ec <__alt_data_end+0xfffd11ec>
    2868:	010000b4 	movhi	r4,2
    286c:	21212584 	addi	r4,r4,-31594
    2870:	d9002c15 	stw	r4,176(sp)
    2874:	003bea06 	br	1820 <__alt_data_end+0xfffd1820>
    2878:	d9002d17 	ldw	r4,180(sp)
    287c:	d9801e04 	addi	r6,sp,120
    2880:	b80b883a 	mov	r5,r23
    2884:	00086480 	call	8648 <__sprint_r>
    2888:	103a7b1e 	bne	r2,zero,1278 <__alt_data_end+0xfffd1278>
    288c:	d8c02017 	ldw	r3,128(sp)
    2890:	da000404 	addi	r8,sp,16
    2894:	003d4106 	br	1d9c <__alt_data_end+0xfffd1d9c>
    2898:	d8801f17 	ldw	r2,124(sp)
    289c:	014000b4 	movhi	r5,2
    28a0:	01000044 	movi	r4,1
    28a4:	18c00044 	addi	r3,r3,1
    28a8:	10800044 	addi	r2,r2,1
    28ac:	29612504 	addi	r5,r5,-31596
    28b0:	41000115 	stw	r4,4(r8)
    28b4:	41400015 	stw	r5,0(r8)
    28b8:	d8c02015 	stw	r3,128(sp)
    28bc:	d8801f15 	stw	r2,124(sp)
    28c0:	010001c4 	movi	r4,7
    28c4:	20805c16 	blt	r4,r2,2a38 <___vfprintf_internal_r+0x1bd0>
    28c8:	42000204 	addi	r8,r8,8
    28cc:	8800041e 	bne	r17,zero,28e0 <___vfprintf_internal_r+0x1a78>
    28d0:	d8803317 	ldw	r2,204(sp)
    28d4:	1000021e 	bne	r2,zero,28e0 <___vfprintf_internal_r+0x1a78>
    28d8:	9080004c 	andi	r2,r18,1
    28dc:	103be726 	beq	r2,zero,187c <__alt_data_end+0xfffd187c>
    28e0:	d9003717 	ldw	r4,220(sp)
    28e4:	d8801f17 	ldw	r2,124(sp)
    28e8:	d9403417 	ldw	r5,208(sp)
    28ec:	20c7883a 	add	r3,r4,r3
    28f0:	10800044 	addi	r2,r2,1
    28f4:	41000115 	stw	r4,4(r8)
    28f8:	41400015 	stw	r5,0(r8)
    28fc:	d8c02015 	stw	r3,128(sp)
    2900:	d8801f15 	stw	r2,124(sp)
    2904:	010001c4 	movi	r4,7
    2908:	20812116 	blt	r4,r2,2d90 <___vfprintf_internal_r+0x1f28>
    290c:	42000204 	addi	r8,r8,8
    2910:	0463c83a 	sub	r17,zero,r17
    2914:	0440730e 	bge	zero,r17,2ae4 <___vfprintf_internal_r+0x1c7c>
    2918:	05800404 	movi	r22,16
    291c:	b440860e 	bge	r22,r17,2b38 <___vfprintf_internal_r+0x1cd0>
    2920:	014000b4 	movhi	r5,2
    2924:	29612584 	addi	r5,r5,-31594
    2928:	d9402c15 	stw	r5,176(sp)
    292c:	070001c4 	movi	fp,7
    2930:	dcc02d17 	ldw	r19,180(sp)
    2934:	00000306 	br	2944 <___vfprintf_internal_r+0x1adc>
    2938:	42000204 	addi	r8,r8,8
    293c:	8c7ffc04 	addi	r17,r17,-16
    2940:	b440800e 	bge	r22,r17,2b44 <___vfprintf_internal_r+0x1cdc>
    2944:	18c00404 	addi	r3,r3,16
    2948:	10800044 	addi	r2,r2,1
    294c:	45000015 	stw	r20,0(r8)
    2950:	45800115 	stw	r22,4(r8)
    2954:	d8c02015 	stw	r3,128(sp)
    2958:	d8801f15 	stw	r2,124(sp)
    295c:	e0bff60e 	bge	fp,r2,2938 <__alt_data_end+0xfffd2938>
    2960:	d9801e04 	addi	r6,sp,120
    2964:	b80b883a 	mov	r5,r23
    2968:	9809883a 	mov	r4,r19
    296c:	00086480 	call	8648 <__sprint_r>
    2970:	103a411e 	bne	r2,zero,1278 <__alt_data_end+0xfffd1278>
    2974:	d8c02017 	ldw	r3,128(sp)
    2978:	d8801f17 	ldw	r2,124(sp)
    297c:	da000404 	addi	r8,sp,16
    2980:	003fee06 	br	293c <__alt_data_end+0xfffd293c>
    2984:	00bfffc4 	movi	r2,-1
    2988:	003a3f06 	br	1288 <__alt_data_end+0xfffd1288>
    298c:	008011c4 	movi	r2,71
    2990:	1440b816 	blt	r2,r17,2c74 <___vfprintf_internal_r+0x1e0c>
    2994:	040000b4 	movhi	r16,2
    2998:	84211704 	addi	r16,r16,-31652
    299c:	00c000c4 	movi	r3,3
    29a0:	00bfdfc4 	movi	r2,-129
    29a4:	d8c02915 	stw	r3,164(sp)
    29a8:	90a4703a 	and	r18,r18,r2
    29ac:	df002783 	ldbu	fp,158(sp)
    29b0:	d8c02b15 	stw	r3,172(sp)
    29b4:	d8002a15 	stw	zero,168(sp)
    29b8:	d8003215 	stw	zero,200(sp)
    29bc:	003b0706 	br	15dc <__alt_data_end+0xfffd15dc>
    29c0:	d8c02e17 	ldw	r3,184(sp)
    29c4:	1cc00017 	ldw	r19,0(r3)
    29c8:	18c00104 	addi	r3,r3,4
    29cc:	d8c02e15 	stw	r3,184(sp)
    29d0:	982dd7fa 	srai	r22,r19,31
    29d4:	b005883a 	mov	r2,r22
    29d8:	003a7706 	br	13b8 <__alt_data_end+0xfffd13b8>
    29dc:	d8c02e17 	ldw	r3,184(sp)
    29e0:	d9002f17 	ldw	r4,188(sp)
    29e4:	18800017 	ldw	r2,0(r3)
    29e8:	18c00104 	addi	r3,r3,4
    29ec:	d8c02e15 	stw	r3,184(sp)
    29f0:	11000015 	stw	r4,0(r2)
    29f4:	00395406 	br	f48 <__alt_data_end+0xfffd0f48>
    29f8:	d9002e17 	ldw	r4,184(sp)
    29fc:	002d883a 	mov	r22,zero
    2a00:	24c00017 	ldw	r19,0(r4)
    2a04:	21000104 	addi	r4,r4,4
    2a08:	d9002e15 	stw	r4,184(sp)
    2a0c:	003c0706 	br	1a2c <__alt_data_end+0xfffd1a2c>
    2a10:	d9402e17 	ldw	r5,184(sp)
    2a14:	d8c02a17 	ldw	r3,168(sp)
    2a18:	002d883a 	mov	r22,zero
    2a1c:	28800104 	addi	r2,r5,4
    2a20:	2cc0000b 	ldhu	r19,0(r5)
    2a24:	183dc10e 	bge	r3,zero,212c <__alt_data_end+0xfffd212c>
    2a28:	003f7506 	br	2800 <__alt_data_end+0xfffd2800>
    2a2c:	040000b4 	movhi	r16,2
    2a30:	84211504 	addi	r16,r16,-31660
    2a34:	003aa706 	br	14d4 <__alt_data_end+0xfffd14d4>
    2a38:	d9002d17 	ldw	r4,180(sp)
    2a3c:	d9801e04 	addi	r6,sp,120
    2a40:	b80b883a 	mov	r5,r23
    2a44:	00086480 	call	8648 <__sprint_r>
    2a48:	103a0b1e 	bne	r2,zero,1278 <__alt_data_end+0xfffd1278>
    2a4c:	dc402617 	ldw	r17,152(sp)
    2a50:	d8c02017 	ldw	r3,128(sp)
    2a54:	da000404 	addi	r8,sp,16
    2a58:	003f9c06 	br	28cc <__alt_data_end+0xfffd28cc>
    2a5c:	ac400043 	ldbu	r17,1(r21)
    2a60:	84000814 	ori	r16,r16,32
    2a64:	ad400044 	addi	r21,r21,1
    2a68:	8c403fcc 	andi	r17,r17,255
    2a6c:	8c40201c 	xori	r17,r17,128
    2a70:	8c7fe004 	addi	r17,r17,-128
    2a74:	00395e06 	br	ff0 <__alt_data_end+0xfffd0ff0>
    2a78:	d8c02e15 	stw	r3,184(sp)
    2a7c:	0039883a 	mov	fp,zero
    2a80:	003e3506 	br	2358 <__alt_data_end+0xfffd2358>
    2a84:	d9002d17 	ldw	r4,180(sp)
    2a88:	d9801e04 	addi	r6,sp,120
    2a8c:	b80b883a 	mov	r5,r23
    2a90:	00086480 	call	8648 <__sprint_r>
    2a94:	1039f81e 	bne	r2,zero,1278 <__alt_data_end+0xfffd1278>
    2a98:	d8c02017 	ldw	r3,128(sp)
    2a9c:	da000404 	addi	r8,sp,16
    2aa0:	003cd006 	br	1de4 <__alt_data_end+0xfffd1de4>
    2aa4:	8009883a 	mov	r4,r16
    2aa8:	df003d15 	stw	fp,244(sp)
    2aac:	0000dd00 	call	dd0 <strlen>
    2ab0:	d8802b15 	stw	r2,172(sp)
    2ab4:	da003d17 	ldw	r8,244(sp)
    2ab8:	103c200e 	bge	r2,zero,1b3c <__alt_data_end+0xfffd1b3c>
    2abc:	0005883a 	mov	r2,zero
    2ac0:	003c1e06 	br	1b3c <__alt_data_end+0xfffd1b3c>
    2ac4:	d9002d17 	ldw	r4,180(sp)
    2ac8:	d9801e04 	addi	r6,sp,120
    2acc:	b80b883a 	mov	r5,r23
    2ad0:	00086480 	call	8648 <__sprint_r>
    2ad4:	1039e81e 	bne	r2,zero,1278 <__alt_data_end+0xfffd1278>
    2ad8:	d8c02017 	ldw	r3,128(sp)
    2adc:	d8801f17 	ldw	r2,124(sp)
    2ae0:	da000404 	addi	r8,sp,16
    2ae4:	d9403317 	ldw	r5,204(sp)
    2ae8:	10800044 	addi	r2,r2,1
    2aec:	44000015 	stw	r16,0(r8)
    2af0:	28c7883a 	add	r3,r5,r3
    2af4:	003b5b06 	br	1864 <__alt_data_end+0xfffd1864>
    2af8:	010000b4 	movhi	r4,2
    2afc:	21212984 	addi	r4,r4,-31578
    2b00:	d9003515 	stw	r4,212(sp)
    2b04:	003af206 	br	16d0 <__alt_data_end+0xfffd16d0>
    2b08:	013fffc4 	movi	r4,-1
    2b0c:	003a0806 	br	1330 <__alt_data_end+0xfffd1330>
    2b10:	0023883a 	mov	r17,zero
    2b14:	003d9d06 	br	218c <__alt_data_end+0xfffd218c>
    2b18:	d9002d17 	ldw	r4,180(sp)
    2b1c:	d9801e04 	addi	r6,sp,120
    2b20:	b80b883a 	mov	r5,r23
    2b24:	00086480 	call	8648 <__sprint_r>
    2b28:	1039d31e 	bne	r2,zero,1278 <__alt_data_end+0xfffd1278>
    2b2c:	d8c02017 	ldw	r3,128(sp)
    2b30:	da000404 	addi	r8,sp,16
    2b34:	003d9406 	br	2188 <__alt_data_end+0xfffd2188>
    2b38:	010000b4 	movhi	r4,2
    2b3c:	21212584 	addi	r4,r4,-31594
    2b40:	d9002c15 	stw	r4,176(sp)
    2b44:	d9002c17 	ldw	r4,176(sp)
    2b48:	1c47883a 	add	r3,r3,r17
    2b4c:	10800044 	addi	r2,r2,1
    2b50:	41000015 	stw	r4,0(r8)
    2b54:	44400115 	stw	r17,4(r8)
    2b58:	d8c02015 	stw	r3,128(sp)
    2b5c:	d8801f15 	stw	r2,124(sp)
    2b60:	010001c4 	movi	r4,7
    2b64:	20bfd716 	blt	r4,r2,2ac4 <__alt_data_end+0xfffd2ac4>
    2b68:	42000204 	addi	r8,r8,8
    2b6c:	003fdd06 	br	2ae4 <__alt_data_end+0xfffd2ae4>
    2b70:	d9002d17 	ldw	r4,180(sp)
    2b74:	d9801e04 	addi	r6,sp,120
    2b78:	b80b883a 	mov	r5,r23
    2b7c:	00086480 	call	8648 <__sprint_r>
    2b80:	1039bd1e 	bne	r2,zero,1278 <__alt_data_end+0xfffd1278>
    2b84:	d8802617 	ldw	r2,152(sp)
    2b88:	d8c02017 	ldw	r3,128(sp)
    2b8c:	da000404 	addi	r8,sp,16
    2b90:	003e1006 	br	23d4 <__alt_data_end+0xfffd23d4>
    2b94:	00800044 	movi	r2,1
    2b98:	10803fcc 	andi	r2,r2,255
    2b9c:	00c00044 	movi	r3,1
    2ba0:	10fa0d26 	beq	r2,r3,13d8 <__alt_data_end+0xfffd13d8>
    2ba4:	00c00084 	movi	r3,2
    2ba8:	10fbaf26 	beq	r2,r3,1a68 <__alt_data_end+0xfffd1a68>
    2bac:	003a6d06 	br	1564 <__alt_data_end+0xfffd1564>
    2bb0:	010000b4 	movhi	r4,2
    2bb4:	21212984 	addi	r4,r4,-31578
    2bb8:	d9003515 	stw	r4,212(sp)
    2bbc:	003b5406 	br	1910 <__alt_data_end+0xfffd1910>
    2bc0:	d8802a17 	ldw	r2,168(sp)
    2bc4:	00c00184 	movi	r3,6
    2bc8:	1880012e 	bgeu	r3,r2,2bd0 <___vfprintf_internal_r+0x1d68>
    2bcc:	1805883a 	mov	r2,r3
    2bd0:	d8802b15 	stw	r2,172(sp)
    2bd4:	1000ef16 	blt	r2,zero,2f94 <___vfprintf_internal_r+0x212c>
    2bd8:	040000b4 	movhi	r16,2
    2bdc:	d8802915 	stw	r2,164(sp)
    2be0:	dcc02e15 	stw	r19,184(sp)
    2be4:	d8002a15 	stw	zero,168(sp)
    2be8:	d8003215 	stw	zero,200(sp)
    2bec:	84212304 	addi	r16,r16,-31604
    2bf0:	0039883a 	mov	fp,zero
    2bf4:	003a8006 	br	15f8 <__alt_data_end+0xfffd15f8>
    2bf8:	0021883a 	mov	r16,zero
    2bfc:	003e0706 	br	241c <__alt_data_end+0xfffd241c>
    2c00:	d9002d17 	ldw	r4,180(sp)
    2c04:	d9801e04 	addi	r6,sp,120
    2c08:	b80b883a 	mov	r5,r23
    2c0c:	00086480 	call	8648 <__sprint_r>
    2c10:	1039991e 	bne	r2,zero,1278 <__alt_data_end+0xfffd1278>
    2c14:	d8802617 	ldw	r2,152(sp)
    2c18:	d9403317 	ldw	r5,204(sp)
    2c1c:	d8c02017 	ldw	r3,128(sp)
    2c20:	da000404 	addi	r8,sp,16
    2c24:	2885c83a 	sub	r2,r5,r2
    2c28:	003dfb06 	br	2418 <__alt_data_end+0xfffd2418>
    2c2c:	9080004c 	andi	r2,r18,1
    2c30:	103e8f1e 	bne	r2,zero,2670 <__alt_data_end+0xfffd2670>
    2c34:	d8802117 	ldw	r2,132(sp)
    2c38:	003e9e06 	br	26b4 <__alt_data_end+0xfffd26b4>
    2c3c:	1025883a 	mov	r18,r2
    2c40:	0039883a 	mov	fp,zero
    2c44:	00800084 	movi	r2,2
    2c48:	003fd306 	br	2b98 <__alt_data_end+0xfffd2b98>
    2c4c:	07000b44 	movi	fp,45
    2c50:	df002785 	stb	fp,158(sp)
    2c54:	003a1b06 	br	14c4 <__alt_data_end+0xfffd14c4>
    2c58:	00c00b44 	movi	r3,45
    2c5c:	d8c02785 	stb	r3,158(sp)
    2c60:	d8802915 	stw	r2,164(sp)
    2c64:	dc802c17 	ldw	r18,176(sp)
    2c68:	d8002a15 	stw	zero,168(sp)
    2c6c:	07000b44 	movi	fp,45
    2c70:	003a5e06 	br	15ec <__alt_data_end+0xfffd15ec>
    2c74:	040000b4 	movhi	r16,2
    2c78:	84211804 	addi	r16,r16,-31648
    2c7c:	003f4706 	br	299c <__alt_data_end+0xfffd299c>
    2c80:	d9002e17 	ldw	r4,184(sp)
    2c84:	d9402f17 	ldw	r5,188(sp)
    2c88:	20800017 	ldw	r2,0(r4)
    2c8c:	21000104 	addi	r4,r4,4
    2c90:	d9002e15 	stw	r4,184(sp)
    2c94:	11400015 	stw	r5,0(r2)
    2c98:	0038ab06 	br	f48 <__alt_data_end+0xfffd0f48>
    2c9c:	dd802617 	ldw	r22,152(sp)
    2ca0:	00bfff44 	movi	r2,-3
    2ca4:	b0801c16 	blt	r22,r2,2d18 <___vfprintf_internal_r+0x1eb0>
    2ca8:	d9402a17 	ldw	r5,168(sp)
    2cac:	2d801a16 	blt	r5,r22,2d18 <___vfprintf_internal_r+0x1eb0>
    2cb0:	dd803215 	stw	r22,200(sp)
    2cb4:	003e8906 	br	26dc <__alt_data_end+0xfffd26dc>
    2cb8:	010000b4 	movhi	r4,2
    2cbc:	21212584 	addi	r4,r4,-31594
    2cc0:	d9002c15 	stw	r4,176(sp)
    2cc4:	003c9106 	br	1f0c <__alt_data_end+0xfffd1f0c>
    2cc8:	e005883a 	mov	r2,fp
    2ccc:	003e7906 	br	26b4 <__alt_data_end+0xfffd26b4>
    2cd0:	d9002a17 	ldw	r4,168(sp)
    2cd4:	df002783 	ldbu	fp,158(sp)
    2cd8:	dcc02e15 	stw	r19,184(sp)
    2cdc:	d9002915 	stw	r4,164(sp)
    2ce0:	d9002b15 	stw	r4,172(sp)
    2ce4:	d8002a15 	stw	zero,168(sp)
    2ce8:	d8003215 	stw	zero,200(sp)
    2cec:	003a3b06 	br	15dc <__alt_data_end+0xfffd15dc>
    2cf0:	9080004c 	andi	r2,r18,1
    2cf4:	0039883a 	mov	fp,zero
    2cf8:	10000426 	beq	r2,zero,2d0c <___vfprintf_internal_r+0x1ea4>
    2cfc:	00800c04 	movi	r2,48
    2d00:	dc001dc4 	addi	r16,sp,119
    2d04:	d8801dc5 	stb	r2,119(sp)
    2d08:	003b6406 	br	1a9c <__alt_data_end+0xfffd1a9c>
    2d0c:	d8002b15 	stw	zero,172(sp)
    2d10:	dc001e04 	addi	r16,sp,120
    2d14:	003a2b06 	br	15c4 <__alt_data_end+0xfffd15c4>
    2d18:	8c7fff84 	addi	r17,r17,-2
    2d1c:	b5bfffc4 	addi	r22,r22,-1
    2d20:	dd802615 	stw	r22,152(sp)
    2d24:	dc4022c5 	stb	r17,139(sp)
    2d28:	b000bf16 	blt	r22,zero,3028 <___vfprintf_internal_r+0x21c0>
    2d2c:	00800ac4 	movi	r2,43
    2d30:	d8802305 	stb	r2,140(sp)
    2d34:	00800244 	movi	r2,9
    2d38:	15807016 	blt	r2,r22,2efc <___vfprintf_internal_r+0x2094>
    2d3c:	00800c04 	movi	r2,48
    2d40:	b5800c04 	addi	r22,r22,48
    2d44:	d8802345 	stb	r2,141(sp)
    2d48:	dd802385 	stb	r22,142(sp)
    2d4c:	d88023c4 	addi	r2,sp,143
    2d50:	df0022c4 	addi	fp,sp,139
    2d54:	d8c03317 	ldw	r3,204(sp)
    2d58:	1739c83a 	sub	fp,r2,fp
    2d5c:	d9003317 	ldw	r4,204(sp)
    2d60:	e0c7883a 	add	r3,fp,r3
    2d64:	df003a15 	stw	fp,232(sp)
    2d68:	d8c02b15 	stw	r3,172(sp)
    2d6c:	00800044 	movi	r2,1
    2d70:	1100b30e 	bge	r2,r4,3040 <___vfprintf_internal_r+0x21d8>
    2d74:	d8c02b17 	ldw	r3,172(sp)
    2d78:	18c00044 	addi	r3,r3,1
    2d7c:	d8c02b15 	stw	r3,172(sp)
    2d80:	1805883a 	mov	r2,r3
    2d84:	1800ac16 	blt	r3,zero,3038 <___vfprintf_internal_r+0x21d0>
    2d88:	d8003215 	stw	zero,200(sp)
    2d8c:	003e5d06 	br	2704 <__alt_data_end+0xfffd2704>
    2d90:	d9002d17 	ldw	r4,180(sp)
    2d94:	d9801e04 	addi	r6,sp,120
    2d98:	b80b883a 	mov	r5,r23
    2d9c:	00086480 	call	8648 <__sprint_r>
    2da0:	1039351e 	bne	r2,zero,1278 <__alt_data_end+0xfffd1278>
    2da4:	dc402617 	ldw	r17,152(sp)
    2da8:	d8c02017 	ldw	r3,128(sp)
    2dac:	d8801f17 	ldw	r2,124(sp)
    2db0:	da000404 	addi	r8,sp,16
    2db4:	003ed606 	br	2910 <__alt_data_end+0xfffd2910>
    2db8:	182b883a 	mov	r21,r3
    2dbc:	d8002a15 	stw	zero,168(sp)
    2dc0:	00388c06 	br	ff4 <__alt_data_end+0xfffd0ff4>
    2dc4:	d8802a17 	ldw	r2,168(sp)
    2dc8:	103e071e 	bne	r2,zero,25e8 <__alt_data_end+0xfffd25e8>
    2dcc:	dc002a15 	stw	r16,168(sp)
    2dd0:	003e0506 	br	25e8 <__alt_data_end+0xfffd25e8>
    2dd4:	d9002a17 	ldw	r4,168(sp)
    2dd8:	20c00044 	addi	r3,r4,1
    2ddc:	003e0f06 	br	261c <__alt_data_end+0xfffd261c>
    2de0:	01400184 	movi	r5,6
    2de4:	d9402a15 	stw	r5,168(sp)
    2de8:	003dff06 	br	25e8 <__alt_data_end+0xfffd25e8>
    2dec:	d8802104 	addi	r2,sp,132
    2df0:	d8800315 	stw	r2,12(sp)
    2df4:	d8802504 	addi	r2,sp,148
    2df8:	d8800215 	stw	r2,8(sp)
    2dfc:	d8802604 	addi	r2,sp,152
    2e00:	d8800115 	stw	r2,4(sp)
    2e04:	d8802a17 	ldw	r2,168(sp)
    2e08:	d9403617 	ldw	r5,216(sp)
    2e0c:	d9002d17 	ldw	r4,180(sp)
    2e10:	d8800015 	stw	r2,0(sp)
    2e14:	01c000c4 	movi	r7,3
    2e18:	980d883a 	mov	r6,r19
    2e1c:	da003d15 	stw	r8,244(sp)
    2e20:	00035980 	call	3598 <_dtoa_r>
    2e24:	d8c02a17 	ldw	r3,168(sp)
    2e28:	da003d17 	ldw	r8,244(sp)
    2e2c:	1021883a 	mov	r16,r2
    2e30:	10f9883a 	add	fp,r2,r3
    2e34:	81000007 	ldb	r4,0(r16)
    2e38:	00800c04 	movi	r2,48
    2e3c:	20805e26 	beq	r4,r2,2fb8 <___vfprintf_internal_r+0x2150>
    2e40:	d8c02617 	ldw	r3,152(sp)
    2e44:	e0f9883a 	add	fp,fp,r3
    2e48:	003e0a06 	br	2674 <__alt_data_end+0xfffd2674>
    2e4c:	00c00b44 	movi	r3,45
    2e50:	24e0003c 	xorhi	r19,r4,32768
    2e54:	d8c02905 	stb	r3,164(sp)
    2e58:	003de906 	br	2600 <__alt_data_end+0xfffd2600>
    2e5c:	d8c03217 	ldw	r3,200(sp)
    2e60:	00c07a0e 	bge	zero,r3,304c <___vfprintf_internal_r+0x21e4>
    2e64:	00800044 	movi	r2,1
    2e68:	d9003317 	ldw	r4,204(sp)
    2e6c:	1105883a 	add	r2,r2,r4
    2e70:	d8802b15 	stw	r2,172(sp)
    2e74:	10004e16 	blt	r2,zero,2fb0 <___vfprintf_internal_r+0x2148>
    2e78:	044019c4 	movi	r17,103
    2e7c:	003e2106 	br	2704 <__alt_data_end+0xfffd2704>
    2e80:	d9002a17 	ldw	r4,168(sp)
    2e84:	d8802104 	addi	r2,sp,132
    2e88:	d8800315 	stw	r2,12(sp)
    2e8c:	d9000015 	stw	r4,0(sp)
    2e90:	d8802504 	addi	r2,sp,148
    2e94:	d9403617 	ldw	r5,216(sp)
    2e98:	d9002d17 	ldw	r4,180(sp)
    2e9c:	d8800215 	stw	r2,8(sp)
    2ea0:	d8802604 	addi	r2,sp,152
    2ea4:	d8800115 	stw	r2,4(sp)
    2ea8:	01c000c4 	movi	r7,3
    2eac:	980d883a 	mov	r6,r19
    2eb0:	da003d15 	stw	r8,244(sp)
    2eb4:	00035980 	call	3598 <_dtoa_r>
    2eb8:	d8c02a17 	ldw	r3,168(sp)
    2ebc:	da003d17 	ldw	r8,244(sp)
    2ec0:	1021883a 	mov	r16,r2
    2ec4:	00801184 	movi	r2,70
    2ec8:	80f9883a 	add	fp,r16,r3
    2ecc:	88bfd926 	beq	r17,r2,2e34 <__alt_data_end+0xfffd2e34>
    2ed0:	003de806 	br	2674 <__alt_data_end+0xfffd2674>
    2ed4:	d9002a17 	ldw	r4,168(sp)
    2ed8:	00c04d0e 	bge	zero,r3,3010 <___vfprintf_internal_r+0x21a8>
    2edc:	2000441e 	bne	r4,zero,2ff0 <___vfprintf_internal_r+0x2188>
    2ee0:	9480004c 	andi	r18,r18,1
    2ee4:	9000421e 	bne	r18,zero,2ff0 <___vfprintf_internal_r+0x2188>
    2ee8:	1805883a 	mov	r2,r3
    2eec:	18006f16 	blt	r3,zero,30ac <___vfprintf_internal_r+0x2244>
    2ef0:	d8c03217 	ldw	r3,200(sp)
    2ef4:	d8c02b15 	stw	r3,172(sp)
    2ef8:	003e0206 	br	2704 <__alt_data_end+0xfffd2704>
    2efc:	df0022c4 	addi	fp,sp,139
    2f00:	dc002a15 	stw	r16,168(sp)
    2f04:	4027883a 	mov	r19,r8
    2f08:	e021883a 	mov	r16,fp
    2f0c:	b009883a 	mov	r4,r22
    2f10:	01400284 	movi	r5,10
    2f14:	0000ae40 	call	ae4 <__modsi3>
    2f18:	10800c04 	addi	r2,r2,48
    2f1c:	843fffc4 	addi	r16,r16,-1
    2f20:	b009883a 	mov	r4,r22
    2f24:	01400284 	movi	r5,10
    2f28:	80800005 	stb	r2,0(r16)
    2f2c:	0000a600 	call	a60 <__divsi3>
    2f30:	102d883a 	mov	r22,r2
    2f34:	00800244 	movi	r2,9
    2f38:	15bff416 	blt	r2,r22,2f0c <__alt_data_end+0xfffd2f0c>
    2f3c:	9811883a 	mov	r8,r19
    2f40:	b0800c04 	addi	r2,r22,48
    2f44:	8027883a 	mov	r19,r16
    2f48:	997fffc4 	addi	r5,r19,-1
    2f4c:	98bfffc5 	stb	r2,-1(r19)
    2f50:	dc002a17 	ldw	r16,168(sp)
    2f54:	2f006d2e 	bgeu	r5,fp,310c <___vfprintf_internal_r+0x22a4>
    2f58:	d9c02384 	addi	r7,sp,142
    2f5c:	3ccfc83a 	sub	r7,r7,r19
    2f60:	d9002344 	addi	r4,sp,141
    2f64:	e1cf883a 	add	r7,fp,r7
    2f68:	00000106 	br	2f70 <___vfprintf_internal_r+0x2108>
    2f6c:	28800003 	ldbu	r2,0(r5)
    2f70:	20800005 	stb	r2,0(r4)
    2f74:	21000044 	addi	r4,r4,1
    2f78:	29400044 	addi	r5,r5,1
    2f7c:	393ffb1e 	bne	r7,r4,2f6c <__alt_data_end+0xfffd2f6c>
    2f80:	d8802304 	addi	r2,sp,140
    2f84:	14c5c83a 	sub	r2,r2,r19
    2f88:	d8c02344 	addi	r3,sp,141
    2f8c:	1885883a 	add	r2,r3,r2
    2f90:	003f7006 	br	2d54 <__alt_data_end+0xfffd2d54>
    2f94:	0005883a 	mov	r2,zero
    2f98:	003f0f06 	br	2bd8 <__alt_data_end+0xfffd2bd8>
    2f9c:	d8c03217 	ldw	r3,200(sp)
    2fa0:	18c00044 	addi	r3,r3,1
    2fa4:	d8c02b15 	stw	r3,172(sp)
    2fa8:	1805883a 	mov	r2,r3
    2fac:	183fb20e 	bge	r3,zero,2e78 <__alt_data_end+0xfffd2e78>
    2fb0:	0005883a 	mov	r2,zero
    2fb4:	003fb006 	br	2e78 <__alt_data_end+0xfffd2e78>
    2fb8:	d9003617 	ldw	r4,216(sp)
    2fbc:	000d883a 	mov	r6,zero
    2fc0:	000f883a 	mov	r7,zero
    2fc4:	980b883a 	mov	r5,r19
    2fc8:	d8c03c15 	stw	r3,240(sp)
    2fcc:	da003d15 	stw	r8,244(sp)
    2fd0:	000c5000 	call	c500 <__eqdf2>
    2fd4:	d8c03c17 	ldw	r3,240(sp)
    2fd8:	da003d17 	ldw	r8,244(sp)
    2fdc:	103f9826 	beq	r2,zero,2e40 <__alt_data_end+0xfffd2e40>
    2fe0:	00800044 	movi	r2,1
    2fe4:	10c7c83a 	sub	r3,r2,r3
    2fe8:	d8c02615 	stw	r3,152(sp)
    2fec:	003f9506 	br	2e44 <__alt_data_end+0xfffd2e44>
    2ff0:	d9002a17 	ldw	r4,168(sp)
    2ff4:	d8c03217 	ldw	r3,200(sp)
    2ff8:	20800044 	addi	r2,r4,1
    2ffc:	1885883a 	add	r2,r3,r2
    3000:	d8802b15 	stw	r2,172(sp)
    3004:	103dbf0e 	bge	r2,zero,2704 <__alt_data_end+0xfffd2704>
    3008:	0005883a 	mov	r2,zero
    300c:	003dbd06 	br	2704 <__alt_data_end+0xfffd2704>
    3010:	2000201e 	bne	r4,zero,3094 <___vfprintf_internal_r+0x222c>
    3014:	9480004c 	andi	r18,r18,1
    3018:	90001e1e 	bne	r18,zero,3094 <___vfprintf_internal_r+0x222c>
    301c:	00800044 	movi	r2,1
    3020:	d8802b15 	stw	r2,172(sp)
    3024:	003db706 	br	2704 <__alt_data_end+0xfffd2704>
    3028:	00800b44 	movi	r2,45
    302c:	05adc83a 	sub	r22,zero,r22
    3030:	d8802305 	stb	r2,140(sp)
    3034:	003f3f06 	br	2d34 <__alt_data_end+0xfffd2d34>
    3038:	0005883a 	mov	r2,zero
    303c:	003f5206 	br	2d88 <__alt_data_end+0xfffd2d88>
    3040:	90a4703a 	and	r18,r18,r2
    3044:	903f4e26 	beq	r18,zero,2d80 <__alt_data_end+0xfffd2d80>
    3048:	003f4a06 	br	2d74 <__alt_data_end+0xfffd2d74>
    304c:	00800084 	movi	r2,2
    3050:	10c5c83a 	sub	r2,r2,r3
    3054:	003f8406 	br	2e68 <__alt_data_end+0xfffd2e68>
    3058:	d9402e17 	ldw	r5,184(sp)
    305c:	d9002e17 	ldw	r4,184(sp)
    3060:	ac400043 	ldbu	r17,1(r21)
    3064:	29400017 	ldw	r5,0(r5)
    3068:	20800104 	addi	r2,r4,4
    306c:	d8802e15 	stw	r2,184(sp)
    3070:	d9402a15 	stw	r5,168(sp)
    3074:	182b883a 	mov	r21,r3
    3078:	283e7b0e 	bge	r5,zero,2a68 <__alt_data_end+0xfffd2a68>
    307c:	8c403fcc 	andi	r17,r17,255
    3080:	017fffc4 	movi	r5,-1
    3084:	8c40201c 	xori	r17,r17,128
    3088:	d9402a15 	stw	r5,168(sp)
    308c:	8c7fe004 	addi	r17,r17,-128
    3090:	0037d706 	br	ff0 <__alt_data_end+0xfffd0ff0>
    3094:	d8c02a17 	ldw	r3,168(sp)
    3098:	18c00084 	addi	r3,r3,2
    309c:	d8c02b15 	stw	r3,172(sp)
    30a0:	1805883a 	mov	r2,r3
    30a4:	183d970e 	bge	r3,zero,2704 <__alt_data_end+0xfffd2704>
    30a8:	003fd706 	br	3008 <__alt_data_end+0xfffd3008>
    30ac:	0005883a 	mov	r2,zero
    30b0:	003f8f06 	br	2ef0 <__alt_data_end+0xfffd2ef0>
    30b4:	9080004c 	andi	r2,r18,1
    30b8:	103f821e 	bne	r2,zero,2ec4 <__alt_data_end+0xfffd2ec4>
    30bc:	d8802117 	ldw	r2,132(sp)
    30c0:	1405c83a 	sub	r2,r2,r16
    30c4:	d8803315 	stw	r2,204(sp)
    30c8:	b47ef426 	beq	r22,r17,2c9c <__alt_data_end+0xfffd2c9c>
    30cc:	dd802617 	ldw	r22,152(sp)
    30d0:	003f1206 	br	2d1c <__alt_data_end+0xfffd2d1c>
    30d4:	d8c02b03 	ldbu	r3,172(sp)
    30d8:	d8c02785 	stb	r3,158(sp)
    30dc:	0038df06 	br	145c <__alt_data_end+0xfffd145c>
    30e0:	d8c02b03 	ldbu	r3,172(sp)
    30e4:	d8c02785 	stb	r3,158(sp)
    30e8:	0038aa06 	br	1394 <__alt_data_end+0xfffd1394>
    30ec:	d8c02b03 	ldbu	r3,172(sp)
    30f0:	d8c02785 	stb	r3,158(sp)
    30f4:	003a4306 	br	1a04 <__alt_data_end+0xfffd1a04>
    30f8:	d8c02b03 	ldbu	r3,172(sp)
    30fc:	d8c02785 	stb	r3,158(sp)
    3100:	003af506 	br	1cd8 <__alt_data_end+0xfffd1cd8>
    3104:	0005883a 	mov	r2,zero
    3108:	003d7b06 	br	26f8 <__alt_data_end+0xfffd26f8>
    310c:	d8802344 	addi	r2,sp,141
    3110:	003f1006 	br	2d54 <__alt_data_end+0xfffd2d54>
    3114:	d8c02b03 	ldbu	r3,172(sp)
    3118:	d8c02785 	stb	r3,158(sp)
    311c:	0038fd06 	br	1514 <__alt_data_end+0xfffd1514>
    3120:	d8c02b03 	ldbu	r3,172(sp)
    3124:	d8c02785 	stb	r3,158(sp)
    3128:	003a9706 	br	1b88 <__alt_data_end+0xfffd1b88>
    312c:	d8c02b03 	ldbu	r3,172(sp)
    3130:	d8c02785 	stb	r3,158(sp)
    3134:	003a1806 	br	1998 <__alt_data_end+0xfffd1998>
    3138:	d8c02b03 	ldbu	r3,172(sp)
    313c:	d8c02785 	stb	r3,158(sp)
    3140:	003abe06 	br	1c3c <__alt_data_end+0xfffd1c3c>

00003144 <__vfprintf_internal>:
    3144:	008000b4 	movhi	r2,2
    3148:	10a8cb04 	addi	r2,r2,-23764
    314c:	300f883a 	mov	r7,r6
    3150:	280d883a 	mov	r6,r5
    3154:	200b883a 	mov	r5,r4
    3158:	11000017 	ldw	r4,0(r2)
    315c:	0000e681 	jmpi	e68 <___vfprintf_internal_r>

00003160 <__sbprintf>:
    3160:	2880030b 	ldhu	r2,12(r5)
    3164:	2ac01917 	ldw	r11,100(r5)
    3168:	2a80038b 	ldhu	r10,14(r5)
    316c:	2a400717 	ldw	r9,28(r5)
    3170:	2a000917 	ldw	r8,36(r5)
    3174:	defee204 	addi	sp,sp,-1144
    3178:	00c10004 	movi	r3,1024
    317c:	dc011a15 	stw	r16,1128(sp)
    3180:	10bfff4c 	andi	r2,r2,65533
    3184:	2821883a 	mov	r16,r5
    3188:	d8cb883a 	add	r5,sp,r3
    318c:	dc811c15 	stw	r18,1136(sp)
    3190:	dc411b15 	stw	r17,1132(sp)
    3194:	dfc11d15 	stw	ra,1140(sp)
    3198:	2025883a 	mov	r18,r4
    319c:	d881030d 	sth	r2,1036(sp)
    31a0:	dac11915 	stw	r11,1124(sp)
    31a4:	da81038d 	sth	r10,1038(sp)
    31a8:	da410715 	stw	r9,1052(sp)
    31ac:	da010915 	stw	r8,1060(sp)
    31b0:	dec10015 	stw	sp,1024(sp)
    31b4:	dec10415 	stw	sp,1040(sp)
    31b8:	d8c10215 	stw	r3,1032(sp)
    31bc:	d8c10515 	stw	r3,1044(sp)
    31c0:	d8010615 	stw	zero,1048(sp)
    31c4:	0000e680 	call	e68 <___vfprintf_internal_r>
    31c8:	1023883a 	mov	r17,r2
    31cc:	10000416 	blt	r2,zero,31e0 <__sbprintf+0x80>
    31d0:	d9410004 	addi	r5,sp,1024
    31d4:	9009883a 	mov	r4,r18
    31d8:	0004e3c0 	call	4e3c <_fflush_r>
    31dc:	10000d1e 	bne	r2,zero,3214 <__sbprintf+0xb4>
    31e0:	d881030b 	ldhu	r2,1036(sp)
    31e4:	1080100c 	andi	r2,r2,64
    31e8:	10000326 	beq	r2,zero,31f8 <__sbprintf+0x98>
    31ec:	8080030b 	ldhu	r2,12(r16)
    31f0:	10801014 	ori	r2,r2,64
    31f4:	8080030d 	sth	r2,12(r16)
    31f8:	8805883a 	mov	r2,r17
    31fc:	dfc11d17 	ldw	ra,1140(sp)
    3200:	dc811c17 	ldw	r18,1136(sp)
    3204:	dc411b17 	ldw	r17,1132(sp)
    3208:	dc011a17 	ldw	r16,1128(sp)
    320c:	dec11e04 	addi	sp,sp,1144
    3210:	f800283a 	ret
    3214:	047fffc4 	movi	r17,-1
    3218:	003ff106 	br	31e0 <__alt_data_end+0xfffd31e0>

0000321c <__swsetup_r>:
    321c:	008000b4 	movhi	r2,2
    3220:	defffd04 	addi	sp,sp,-12
    3224:	10a8cb04 	addi	r2,r2,-23764
    3228:	dc400115 	stw	r17,4(sp)
    322c:	2023883a 	mov	r17,r4
    3230:	11000017 	ldw	r4,0(r2)
    3234:	dc000015 	stw	r16,0(sp)
    3238:	dfc00215 	stw	ra,8(sp)
    323c:	2821883a 	mov	r16,r5
    3240:	20000226 	beq	r4,zero,324c <__swsetup_r+0x30>
    3244:	20800e17 	ldw	r2,56(r4)
    3248:	10003126 	beq	r2,zero,3310 <__swsetup_r+0xf4>
    324c:	8080030b 	ldhu	r2,12(r16)
    3250:	10c0020c 	andi	r3,r2,8
    3254:	1009883a 	mov	r4,r2
    3258:	18000f26 	beq	r3,zero,3298 <__swsetup_r+0x7c>
    325c:	80c00417 	ldw	r3,16(r16)
    3260:	18001526 	beq	r3,zero,32b8 <__swsetup_r+0x9c>
    3264:	1100004c 	andi	r4,r2,1
    3268:	20001c1e 	bne	r4,zero,32dc <__swsetup_r+0xc0>
    326c:	1080008c 	andi	r2,r2,2
    3270:	1000291e 	bne	r2,zero,3318 <__swsetup_r+0xfc>
    3274:	80800517 	ldw	r2,20(r16)
    3278:	80800215 	stw	r2,8(r16)
    327c:	18001c26 	beq	r3,zero,32f0 <__swsetup_r+0xd4>
    3280:	0005883a 	mov	r2,zero
    3284:	dfc00217 	ldw	ra,8(sp)
    3288:	dc400117 	ldw	r17,4(sp)
    328c:	dc000017 	ldw	r16,0(sp)
    3290:	dec00304 	addi	sp,sp,12
    3294:	f800283a 	ret
    3298:	2080040c 	andi	r2,r4,16
    329c:	10002e26 	beq	r2,zero,3358 <__swsetup_r+0x13c>
    32a0:	2080010c 	andi	r2,r4,4
    32a4:	10001e1e 	bne	r2,zero,3320 <__swsetup_r+0x104>
    32a8:	80c00417 	ldw	r3,16(r16)
    32ac:	20800214 	ori	r2,r4,8
    32b0:	8080030d 	sth	r2,12(r16)
    32b4:	183feb1e 	bne	r3,zero,3264 <__alt_data_end+0xfffd3264>
    32b8:	1100a00c 	andi	r4,r2,640
    32bc:	01408004 	movi	r5,512
    32c0:	217fe826 	beq	r4,r5,3264 <__alt_data_end+0xfffd3264>
    32c4:	800b883a 	mov	r5,r16
    32c8:	8809883a 	mov	r4,r17
    32cc:	0005dd80 	call	5dd8 <__smakebuf_r>
    32d0:	8080030b 	ldhu	r2,12(r16)
    32d4:	80c00417 	ldw	r3,16(r16)
    32d8:	003fe206 	br	3264 <__alt_data_end+0xfffd3264>
    32dc:	80800517 	ldw	r2,20(r16)
    32e0:	80000215 	stw	zero,8(r16)
    32e4:	0085c83a 	sub	r2,zero,r2
    32e8:	80800615 	stw	r2,24(r16)
    32ec:	183fe41e 	bne	r3,zero,3280 <__alt_data_end+0xfffd3280>
    32f0:	80c0030b 	ldhu	r3,12(r16)
    32f4:	0005883a 	mov	r2,zero
    32f8:	1900200c 	andi	r4,r3,128
    32fc:	203fe126 	beq	r4,zero,3284 <__alt_data_end+0xfffd3284>
    3300:	18c01014 	ori	r3,r3,64
    3304:	80c0030d 	sth	r3,12(r16)
    3308:	00bfffc4 	movi	r2,-1
    330c:	003fdd06 	br	3284 <__alt_data_end+0xfffd3284>
    3310:	00052280 	call	5228 <__sinit>
    3314:	003fcd06 	br	324c <__alt_data_end+0xfffd324c>
    3318:	0005883a 	mov	r2,zero
    331c:	003fd606 	br	3278 <__alt_data_end+0xfffd3278>
    3320:	81400c17 	ldw	r5,48(r16)
    3324:	28000626 	beq	r5,zero,3340 <__swsetup_r+0x124>
    3328:	80801004 	addi	r2,r16,64
    332c:	28800326 	beq	r5,r2,333c <__swsetup_r+0x120>
    3330:	8809883a 	mov	r4,r17
    3334:	000539c0 	call	539c <_free_r>
    3338:	8100030b 	ldhu	r4,12(r16)
    333c:	80000c15 	stw	zero,48(r16)
    3340:	80c00417 	ldw	r3,16(r16)
    3344:	00bff6c4 	movi	r2,-37
    3348:	1108703a 	and	r4,r2,r4
    334c:	80000115 	stw	zero,4(r16)
    3350:	80c00015 	stw	r3,0(r16)
    3354:	003fd506 	br	32ac <__alt_data_end+0xfffd32ac>
    3358:	00800244 	movi	r2,9
    335c:	88800015 	stw	r2,0(r17)
    3360:	20801014 	ori	r2,r4,64
    3364:	8080030d 	sth	r2,12(r16)
    3368:	00bfffc4 	movi	r2,-1
    336c:	003fc506 	br	3284 <__alt_data_end+0xfffd3284>

00003370 <quorem>:
    3370:	defff204 	addi	sp,sp,-56
    3374:	ddc00b15 	stw	r23,44(sp)
    3378:	20800417 	ldw	r2,16(r4)
    337c:	2dc00417 	ldw	r23,16(r5)
    3380:	dfc00d15 	stw	ra,52(sp)
    3384:	df000c15 	stw	fp,48(sp)
    3388:	dd800a15 	stw	r22,40(sp)
    338c:	dd400915 	stw	r21,36(sp)
    3390:	dd000815 	stw	r20,32(sp)
    3394:	dcc00715 	stw	r19,28(sp)
    3398:	dc800615 	stw	r18,24(sp)
    339c:	dc400515 	stw	r17,20(sp)
    33a0:	dc000415 	stw	r16,16(sp)
    33a4:	15c07a16 	blt	r2,r23,3590 <quorem+0x220>
    33a8:	bdffffc4 	addi	r23,r23,-1
    33ac:	bde9883a 	add	r20,r23,r23
    33b0:	28c00504 	addi	r3,r5,20
    33b4:	a529883a 	add	r20,r20,r20
    33b8:	1d39883a 	add	fp,r3,r20
    33bc:	24c00504 	addi	r19,r4,20
    33c0:	d9400215 	stw	r5,8(sp)
    33c4:	9d29883a 	add	r20,r19,r20
    33c8:	e1400017 	ldw	r5,0(fp)
    33cc:	d9000015 	stw	r4,0(sp)
    33d0:	a1000017 	ldw	r4,0(r20)
    33d4:	29400044 	addi	r5,r5,1
    33d8:	d8c00115 	stw	r3,4(sp)
    33dc:	dd000315 	stw	r20,12(sp)
    33e0:	0000b580 	call	b58 <__udivsi3>
    33e4:	1025883a 	mov	r18,r2
    33e8:	10003026 	beq	r2,zero,34ac <quorem+0x13c>
    33ec:	dc400117 	ldw	r17,4(sp)
    33f0:	9829883a 	mov	r20,r19
    33f4:	002d883a 	mov	r22,zero
    33f8:	0021883a 	mov	r16,zero
    33fc:	8d400017 	ldw	r21,0(r17)
    3400:	900b883a 	mov	r5,r18
    3404:	8c400104 	addi	r17,r17,4
    3408:	a93fffcc 	andi	r4,r21,65535
    340c:	000b25c0 	call	b25c <__mulsi3>
    3410:	a808d43a 	srli	r4,r21,16
    3414:	900b883a 	mov	r5,r18
    3418:	15ad883a 	add	r22,r2,r22
    341c:	000b25c0 	call	b25c <__mulsi3>
    3420:	a1000017 	ldw	r4,0(r20)
    3424:	b00cd43a 	srli	r6,r22,16
    3428:	b0ffffcc 	andi	r3,r22,65535
    342c:	217fffcc 	andi	r5,r4,65535
    3430:	2c21883a 	add	r16,r5,r16
    3434:	80c7c83a 	sub	r3,r16,r3
    3438:	2008d43a 	srli	r4,r4,16
    343c:	1185883a 	add	r2,r2,r6
    3440:	1821d43a 	srai	r16,r3,16
    3444:	117fffcc 	andi	r5,r2,65535
    3448:	2149c83a 	sub	r4,r4,r5
    344c:	2421883a 	add	r16,r4,r16
    3450:	8008943a 	slli	r4,r16,16
    3454:	18ffffcc 	andi	r3,r3,65535
    3458:	102cd43a 	srli	r22,r2,16
    345c:	20c8b03a 	or	r4,r4,r3
    3460:	a1000015 	stw	r4,0(r20)
    3464:	8021d43a 	srai	r16,r16,16
    3468:	a5000104 	addi	r20,r20,4
    346c:	e47fe32e 	bgeu	fp,r17,33fc <__alt_data_end+0xfffd33fc>
    3470:	d8c00317 	ldw	r3,12(sp)
    3474:	18800017 	ldw	r2,0(r3)
    3478:	10000c1e 	bne	r2,zero,34ac <quorem+0x13c>
    347c:	18bfff04 	addi	r2,r3,-4
    3480:	9880082e 	bgeu	r19,r2,34a4 <quorem+0x134>
    3484:	18ffff17 	ldw	r3,-4(r3)
    3488:	18000326 	beq	r3,zero,3498 <quorem+0x128>
    348c:	00000506 	br	34a4 <quorem+0x134>
    3490:	10c00017 	ldw	r3,0(r2)
    3494:	1800031e 	bne	r3,zero,34a4 <quorem+0x134>
    3498:	10bfff04 	addi	r2,r2,-4
    349c:	bdffffc4 	addi	r23,r23,-1
    34a0:	98bffb36 	bltu	r19,r2,3490 <__alt_data_end+0xfffd3490>
    34a4:	d8c00017 	ldw	r3,0(sp)
    34a8:	1dc00415 	stw	r23,16(r3)
    34ac:	d9400217 	ldw	r5,8(sp)
    34b0:	d9000017 	ldw	r4,0(sp)
    34b4:	00075d40 	call	75d4 <__mcmp>
    34b8:	10002816 	blt	r2,zero,355c <quorem+0x1ec>
    34bc:	dc400117 	ldw	r17,4(sp)
    34c0:	94800044 	addi	r18,r18,1
    34c4:	980d883a 	mov	r6,r19
    34c8:	0007883a 	mov	r3,zero
    34cc:	31000017 	ldw	r4,0(r6)
    34d0:	89400017 	ldw	r5,0(r17)
    34d4:	31800104 	addi	r6,r6,4
    34d8:	20bfffcc 	andi	r2,r4,65535
    34dc:	10c7883a 	add	r3,r2,r3
    34e0:	28bfffcc 	andi	r2,r5,65535
    34e4:	1885c83a 	sub	r2,r3,r2
    34e8:	280ad43a 	srli	r5,r5,16
    34ec:	2008d43a 	srli	r4,r4,16
    34f0:	1007d43a 	srai	r3,r2,16
    34f4:	10bfffcc 	andi	r2,r2,65535
    34f8:	2149c83a 	sub	r4,r4,r5
    34fc:	20c9883a 	add	r4,r4,r3
    3500:	200a943a 	slli	r5,r4,16
    3504:	8c400104 	addi	r17,r17,4
    3508:	2007d43a 	srai	r3,r4,16
    350c:	2884b03a 	or	r2,r5,r2
    3510:	30bfff15 	stw	r2,-4(r6)
    3514:	e47fed2e 	bgeu	fp,r17,34cc <__alt_data_end+0xfffd34cc>
    3518:	bdc5883a 	add	r2,r23,r23
    351c:	1085883a 	add	r2,r2,r2
    3520:	9887883a 	add	r3,r19,r2
    3524:	18800017 	ldw	r2,0(r3)
    3528:	10000c1e 	bne	r2,zero,355c <quorem+0x1ec>
    352c:	18bfff04 	addi	r2,r3,-4
    3530:	9880082e 	bgeu	r19,r2,3554 <quorem+0x1e4>
    3534:	18ffff17 	ldw	r3,-4(r3)
    3538:	18000326 	beq	r3,zero,3548 <quorem+0x1d8>
    353c:	00000506 	br	3554 <quorem+0x1e4>
    3540:	10c00017 	ldw	r3,0(r2)
    3544:	1800031e 	bne	r3,zero,3554 <quorem+0x1e4>
    3548:	10bfff04 	addi	r2,r2,-4
    354c:	bdffffc4 	addi	r23,r23,-1
    3550:	98bffb36 	bltu	r19,r2,3540 <__alt_data_end+0xfffd3540>
    3554:	d8c00017 	ldw	r3,0(sp)
    3558:	1dc00415 	stw	r23,16(r3)
    355c:	9005883a 	mov	r2,r18
    3560:	dfc00d17 	ldw	ra,52(sp)
    3564:	df000c17 	ldw	fp,48(sp)
    3568:	ddc00b17 	ldw	r23,44(sp)
    356c:	dd800a17 	ldw	r22,40(sp)
    3570:	dd400917 	ldw	r21,36(sp)
    3574:	dd000817 	ldw	r20,32(sp)
    3578:	dcc00717 	ldw	r19,28(sp)
    357c:	dc800617 	ldw	r18,24(sp)
    3580:	dc400517 	ldw	r17,20(sp)
    3584:	dc000417 	ldw	r16,16(sp)
    3588:	dec00e04 	addi	sp,sp,56
    358c:	f800283a 	ret
    3590:	0005883a 	mov	r2,zero
    3594:	003ff206 	br	3560 <__alt_data_end+0xfffd3560>

00003598 <_dtoa_r>:
    3598:	20801017 	ldw	r2,64(r4)
    359c:	deffde04 	addi	sp,sp,-136
    35a0:	df002015 	stw	fp,128(sp)
    35a4:	dcc01b15 	stw	r19,108(sp)
    35a8:	dc801a15 	stw	r18,104(sp)
    35ac:	dc401915 	stw	r17,100(sp)
    35b0:	dc001815 	stw	r16,96(sp)
    35b4:	dfc02115 	stw	ra,132(sp)
    35b8:	ddc01f15 	stw	r23,124(sp)
    35bc:	dd801e15 	stw	r22,120(sp)
    35c0:	dd401d15 	stw	r21,116(sp)
    35c4:	dd001c15 	stw	r20,112(sp)
    35c8:	d9c00315 	stw	r7,12(sp)
    35cc:	2039883a 	mov	fp,r4
    35d0:	3023883a 	mov	r17,r6
    35d4:	2825883a 	mov	r18,r5
    35d8:	dc002417 	ldw	r16,144(sp)
    35dc:	3027883a 	mov	r19,r6
    35e0:	10000826 	beq	r2,zero,3604 <_dtoa_r+0x6c>
    35e4:	21801117 	ldw	r6,68(r4)
    35e8:	00c00044 	movi	r3,1
    35ec:	100b883a 	mov	r5,r2
    35f0:	1986983a 	sll	r3,r3,r6
    35f4:	11800115 	stw	r6,4(r2)
    35f8:	10c00215 	stw	r3,8(r2)
    35fc:	0006cf80 	call	6cf8 <_Bfree>
    3600:	e0001015 	stw	zero,64(fp)
    3604:	88002e16 	blt	r17,zero,36c0 <_dtoa_r+0x128>
    3608:	80000015 	stw	zero,0(r16)
    360c:	889ffc2c 	andhi	r2,r17,32752
    3610:	00dffc34 	movhi	r3,32752
    3614:	10c01c26 	beq	r2,r3,3688 <_dtoa_r+0xf0>
    3618:	000d883a 	mov	r6,zero
    361c:	000f883a 	mov	r7,zero
    3620:	9009883a 	mov	r4,r18
    3624:	980b883a 	mov	r5,r19
    3628:	000c5000 	call	c500 <__eqdf2>
    362c:	10002b1e 	bne	r2,zero,36dc <_dtoa_r+0x144>
    3630:	d9c02317 	ldw	r7,140(sp)
    3634:	00800044 	movi	r2,1
    3638:	38800015 	stw	r2,0(r7)
    363c:	d8802517 	ldw	r2,148(sp)
    3640:	10019e26 	beq	r2,zero,3cbc <_dtoa_r+0x724>
    3644:	d8c02517 	ldw	r3,148(sp)
    3648:	008000b4 	movhi	r2,2
    364c:	10a12544 	addi	r2,r2,-31595
    3650:	18800015 	stw	r2,0(r3)
    3654:	10bfffc4 	addi	r2,r2,-1
    3658:	dfc02117 	ldw	ra,132(sp)
    365c:	df002017 	ldw	fp,128(sp)
    3660:	ddc01f17 	ldw	r23,124(sp)
    3664:	dd801e17 	ldw	r22,120(sp)
    3668:	dd401d17 	ldw	r21,116(sp)
    366c:	dd001c17 	ldw	r20,112(sp)
    3670:	dcc01b17 	ldw	r19,108(sp)
    3674:	dc801a17 	ldw	r18,104(sp)
    3678:	dc401917 	ldw	r17,100(sp)
    367c:	dc001817 	ldw	r16,96(sp)
    3680:	dec02204 	addi	sp,sp,136
    3684:	f800283a 	ret
    3688:	d8c02317 	ldw	r3,140(sp)
    368c:	0089c3c4 	movi	r2,9999
    3690:	18800015 	stw	r2,0(r3)
    3694:	90017726 	beq	r18,zero,3c74 <_dtoa_r+0x6dc>
    3698:	008000b4 	movhi	r2,2
    369c:	10a13104 	addi	r2,r2,-31548
    36a0:	d9002517 	ldw	r4,148(sp)
    36a4:	203fec26 	beq	r4,zero,3658 <__alt_data_end+0xfffd3658>
    36a8:	10c000c7 	ldb	r3,3(r2)
    36ac:	1801781e 	bne	r3,zero,3c90 <_dtoa_r+0x6f8>
    36b0:	10c000c4 	addi	r3,r2,3
    36b4:	d9802517 	ldw	r6,148(sp)
    36b8:	30c00015 	stw	r3,0(r6)
    36bc:	003fe606 	br	3658 <__alt_data_end+0xfffd3658>
    36c0:	04e00034 	movhi	r19,32768
    36c4:	9cffffc4 	addi	r19,r19,-1
    36c8:	00800044 	movi	r2,1
    36cc:	8ce6703a 	and	r19,r17,r19
    36d0:	80800015 	stw	r2,0(r16)
    36d4:	9823883a 	mov	r17,r19
    36d8:	003fcc06 	br	360c <__alt_data_end+0xfffd360c>
    36dc:	d8800204 	addi	r2,sp,8
    36e0:	d8800015 	stw	r2,0(sp)
    36e4:	d9c00104 	addi	r7,sp,4
    36e8:	900b883a 	mov	r5,r18
    36ec:	980d883a 	mov	r6,r19
    36f0:	e009883a 	mov	r4,fp
    36f4:	8820d53a 	srli	r16,r17,20
    36f8:	00079a00 	call	79a0 <__d2b>
    36fc:	d8800915 	stw	r2,36(sp)
    3700:	8001651e 	bne	r16,zero,3c98 <_dtoa_r+0x700>
    3704:	dd800217 	ldw	r22,8(sp)
    3708:	dc000117 	ldw	r16,4(sp)
    370c:	00800804 	movi	r2,32
    3710:	b421883a 	add	r16,r22,r16
    3714:	80c10c84 	addi	r3,r16,1074
    3718:	10c2d10e 	bge	r2,r3,4260 <_dtoa_r+0xcc8>
    371c:	00801004 	movi	r2,64
    3720:	81010484 	addi	r4,r16,1042
    3724:	10c7c83a 	sub	r3,r2,r3
    3728:	9108d83a 	srl	r4,r18,r4
    372c:	88e2983a 	sll	r17,r17,r3
    3730:	2448b03a 	or	r4,r4,r17
    3734:	000da1c0 	call	da1c <__floatunsidf>
    3738:	017f8434 	movhi	r5,65040
    373c:	01800044 	movi	r6,1
    3740:	1009883a 	mov	r4,r2
    3744:	194b883a 	add	r5,r3,r5
    3748:	843fffc4 	addi	r16,r16,-1
    374c:	d9801115 	stw	r6,68(sp)
    3750:	000d883a 	mov	r6,zero
    3754:	01cffe34 	movhi	r7,16376
    3758:	000cfc40 	call	cfc4 <__subdf3>
    375c:	0198dbf4 	movhi	r6,25455
    3760:	01cff4f4 	movhi	r7,16339
    3764:	3190d844 	addi	r6,r6,17249
    3768:	39e1e9c4 	addi	r7,r7,-30809
    376c:	1009883a 	mov	r4,r2
    3770:	180b883a 	mov	r5,r3
    3774:	000c7580 	call	c758 <__muldf3>
    3778:	01a2d874 	movhi	r6,35681
    377c:	01cff1f4 	movhi	r7,16327
    3780:	31b22cc4 	addi	r6,r6,-14157
    3784:	39e28a04 	addi	r7,r7,-30168
    3788:	180b883a 	mov	r5,r3
    378c:	1009883a 	mov	r4,r2
    3790:	000b2840 	call	b284 <__adddf3>
    3794:	8009883a 	mov	r4,r16
    3798:	1029883a 	mov	r20,r2
    379c:	1823883a 	mov	r17,r3
    37a0:	000d9400 	call	d940 <__floatsidf>
    37a4:	019427f4 	movhi	r6,20639
    37a8:	01cff4f4 	movhi	r7,16339
    37ac:	319e7ec4 	addi	r6,r6,31227
    37b0:	39d104c4 	addi	r7,r7,17427
    37b4:	1009883a 	mov	r4,r2
    37b8:	180b883a 	mov	r5,r3
    37bc:	000c7580 	call	c758 <__muldf3>
    37c0:	100d883a 	mov	r6,r2
    37c4:	180f883a 	mov	r7,r3
    37c8:	a009883a 	mov	r4,r20
    37cc:	880b883a 	mov	r5,r17
    37d0:	000b2840 	call	b284 <__adddf3>
    37d4:	1009883a 	mov	r4,r2
    37d8:	180b883a 	mov	r5,r3
    37dc:	1029883a 	mov	r20,r2
    37e0:	1823883a 	mov	r17,r3
    37e4:	000d8c00 	call	d8c0 <__fixdfsi>
    37e8:	000d883a 	mov	r6,zero
    37ec:	000f883a 	mov	r7,zero
    37f0:	a009883a 	mov	r4,r20
    37f4:	880b883a 	mov	r5,r17
    37f8:	d8800515 	stw	r2,20(sp)
    37fc:	000c6640 	call	c664 <__ledf2>
    3800:	10028716 	blt	r2,zero,4220 <_dtoa_r+0xc88>
    3804:	d8c00517 	ldw	r3,20(sp)
    3808:	00800584 	movi	r2,22
    380c:	10c27536 	bltu	r2,r3,41e4 <_dtoa_r+0xc4c>
    3810:	180490fa 	slli	r2,r3,3
    3814:	00c000b4 	movhi	r3,2
    3818:	18e14d04 	addi	r3,r3,-31436
    381c:	1885883a 	add	r2,r3,r2
    3820:	11000017 	ldw	r4,0(r2)
    3824:	11400117 	ldw	r5,4(r2)
    3828:	900d883a 	mov	r6,r18
    382c:	980f883a 	mov	r7,r19
    3830:	000c5880 	call	c588 <__gedf2>
    3834:	00828d0e 	bge	zero,r2,426c <_dtoa_r+0xcd4>
    3838:	d9000517 	ldw	r4,20(sp)
    383c:	d8000e15 	stw	zero,56(sp)
    3840:	213fffc4 	addi	r4,r4,-1
    3844:	d9000515 	stw	r4,20(sp)
    3848:	b42dc83a 	sub	r22,r22,r16
    384c:	b5bfffc4 	addi	r22,r22,-1
    3850:	b0026f16 	blt	r22,zero,4210 <_dtoa_r+0xc78>
    3854:	d8000815 	stw	zero,32(sp)
    3858:	d9c00517 	ldw	r7,20(sp)
    385c:	38026416 	blt	r7,zero,41f0 <_dtoa_r+0xc58>
    3860:	b1ed883a 	add	r22,r22,r7
    3864:	d9c00d15 	stw	r7,52(sp)
    3868:	d8000a15 	stw	zero,40(sp)
    386c:	d9800317 	ldw	r6,12(sp)
    3870:	00800244 	movi	r2,9
    3874:	11811436 	bltu	r2,r6,3cc8 <_dtoa_r+0x730>
    3878:	00800144 	movi	r2,5
    387c:	1184e10e 	bge	r2,r6,4c04 <_dtoa_r+0x166c>
    3880:	31bfff04 	addi	r6,r6,-4
    3884:	d9800315 	stw	r6,12(sp)
    3888:	0023883a 	mov	r17,zero
    388c:	d9800317 	ldw	r6,12(sp)
    3890:	008000c4 	movi	r2,3
    3894:	30836726 	beq	r6,r2,4634 <_dtoa_r+0x109c>
    3898:	1183410e 	bge	r2,r6,45a0 <_dtoa_r+0x1008>
    389c:	d9c00317 	ldw	r7,12(sp)
    38a0:	00800104 	movi	r2,4
    38a4:	38827c26 	beq	r7,r2,4298 <_dtoa_r+0xd00>
    38a8:	00800144 	movi	r2,5
    38ac:	3884c41e 	bne	r7,r2,4bc0 <_dtoa_r+0x1628>
    38b0:	00800044 	movi	r2,1
    38b4:	d8800b15 	stw	r2,44(sp)
    38b8:	d8c00517 	ldw	r3,20(sp)
    38bc:	d9002217 	ldw	r4,136(sp)
    38c0:	1907883a 	add	r3,r3,r4
    38c4:	19800044 	addi	r6,r3,1
    38c8:	d8c00c15 	stw	r3,48(sp)
    38cc:	d9800615 	stw	r6,24(sp)
    38d0:	0183a40e 	bge	zero,r6,4764 <_dtoa_r+0x11cc>
    38d4:	d9800617 	ldw	r6,24(sp)
    38d8:	3021883a 	mov	r16,r6
    38dc:	e0001115 	stw	zero,68(fp)
    38e0:	008005c4 	movi	r2,23
    38e4:	1184c92e 	bgeu	r2,r6,4c0c <_dtoa_r+0x1674>
    38e8:	00c00044 	movi	r3,1
    38ec:	00800104 	movi	r2,4
    38f0:	1085883a 	add	r2,r2,r2
    38f4:	11000504 	addi	r4,r2,20
    38f8:	180b883a 	mov	r5,r3
    38fc:	18c00044 	addi	r3,r3,1
    3900:	313ffb2e 	bgeu	r6,r4,38f0 <__alt_data_end+0xfffd38f0>
    3904:	e1401115 	stw	r5,68(fp)
    3908:	e009883a 	mov	r4,fp
    390c:	0006c500 	call	6c50 <_Balloc>
    3910:	d8800715 	stw	r2,28(sp)
    3914:	e0801015 	stw	r2,64(fp)
    3918:	00800384 	movi	r2,14
    391c:	1400f736 	bltu	r2,r16,3cfc <_dtoa_r+0x764>
    3920:	8800f626 	beq	r17,zero,3cfc <_dtoa_r+0x764>
    3924:	d9c00517 	ldw	r7,20(sp)
    3928:	01c39a0e 	bge	zero,r7,4794 <_dtoa_r+0x11fc>
    392c:	388003cc 	andi	r2,r7,15
    3930:	100490fa 	slli	r2,r2,3
    3934:	382bd13a 	srai	r21,r7,4
    3938:	00c000b4 	movhi	r3,2
    393c:	18e14d04 	addi	r3,r3,-31436
    3940:	1885883a 	add	r2,r3,r2
    3944:	a8c0040c 	andi	r3,r21,16
    3948:	12400017 	ldw	r9,0(r2)
    394c:	12000117 	ldw	r8,4(r2)
    3950:	18037926 	beq	r3,zero,4738 <_dtoa_r+0x11a0>
    3954:	008000b4 	movhi	r2,2
    3958:	10a14304 	addi	r2,r2,-31476
    395c:	11800817 	ldw	r6,32(r2)
    3960:	11c00917 	ldw	r7,36(r2)
    3964:	9009883a 	mov	r4,r18
    3968:	980b883a 	mov	r5,r19
    396c:	da001715 	stw	r8,92(sp)
    3970:	da401615 	stw	r9,88(sp)
    3974:	000bb300 	call	bb30 <__divdf3>
    3978:	da001717 	ldw	r8,92(sp)
    397c:	da401617 	ldw	r9,88(sp)
    3980:	ad4003cc 	andi	r21,r21,15
    3984:	040000c4 	movi	r16,3
    3988:	1023883a 	mov	r17,r2
    398c:	1829883a 	mov	r20,r3
    3990:	a8001126 	beq	r21,zero,39d8 <_dtoa_r+0x440>
    3994:	05c000b4 	movhi	r23,2
    3998:	bde14304 	addi	r23,r23,-31476
    399c:	4805883a 	mov	r2,r9
    39a0:	4007883a 	mov	r3,r8
    39a4:	a980004c 	andi	r6,r21,1
    39a8:	1009883a 	mov	r4,r2
    39ac:	a82bd07a 	srai	r21,r21,1
    39b0:	180b883a 	mov	r5,r3
    39b4:	30000426 	beq	r6,zero,39c8 <_dtoa_r+0x430>
    39b8:	b9800017 	ldw	r6,0(r23)
    39bc:	b9c00117 	ldw	r7,4(r23)
    39c0:	84000044 	addi	r16,r16,1
    39c4:	000c7580 	call	c758 <__muldf3>
    39c8:	bdc00204 	addi	r23,r23,8
    39cc:	a83ff51e 	bne	r21,zero,39a4 <__alt_data_end+0xfffd39a4>
    39d0:	1013883a 	mov	r9,r2
    39d4:	1811883a 	mov	r8,r3
    39d8:	480d883a 	mov	r6,r9
    39dc:	400f883a 	mov	r7,r8
    39e0:	8809883a 	mov	r4,r17
    39e4:	a00b883a 	mov	r5,r20
    39e8:	000bb300 	call	bb30 <__divdf3>
    39ec:	d8800f15 	stw	r2,60(sp)
    39f0:	d8c01015 	stw	r3,64(sp)
    39f4:	d8c00e17 	ldw	r3,56(sp)
    39f8:	18000626 	beq	r3,zero,3a14 <_dtoa_r+0x47c>
    39fc:	d9000f17 	ldw	r4,60(sp)
    3a00:	d9401017 	ldw	r5,64(sp)
    3a04:	000d883a 	mov	r6,zero
    3a08:	01cffc34 	movhi	r7,16368
    3a0c:	000c6640 	call	c664 <__ledf2>
    3a10:	10040b16 	blt	r2,zero,4a40 <_dtoa_r+0x14a8>
    3a14:	8009883a 	mov	r4,r16
    3a18:	000d9400 	call	d940 <__floatsidf>
    3a1c:	d9800f17 	ldw	r6,60(sp)
    3a20:	d9c01017 	ldw	r7,64(sp)
    3a24:	1009883a 	mov	r4,r2
    3a28:	180b883a 	mov	r5,r3
    3a2c:	000c7580 	call	c758 <__muldf3>
    3a30:	000d883a 	mov	r6,zero
    3a34:	01d00734 	movhi	r7,16412
    3a38:	1009883a 	mov	r4,r2
    3a3c:	180b883a 	mov	r5,r3
    3a40:	000b2840 	call	b284 <__adddf3>
    3a44:	1021883a 	mov	r16,r2
    3a48:	d8800617 	ldw	r2,24(sp)
    3a4c:	047f3034 	movhi	r17,64704
    3a50:	1c63883a 	add	r17,r3,r17
    3a54:	10031826 	beq	r2,zero,46b8 <_dtoa_r+0x1120>
    3a58:	d8c00517 	ldw	r3,20(sp)
    3a5c:	db000617 	ldw	r12,24(sp)
    3a60:	d8c01315 	stw	r3,76(sp)
    3a64:	d9000b17 	ldw	r4,44(sp)
    3a68:	20038f26 	beq	r4,zero,48a8 <_dtoa_r+0x1310>
    3a6c:	60bfffc4 	addi	r2,r12,-1
    3a70:	100490fa 	slli	r2,r2,3
    3a74:	00c000b4 	movhi	r3,2
    3a78:	18e14d04 	addi	r3,r3,-31436
    3a7c:	1885883a 	add	r2,r3,r2
    3a80:	11800017 	ldw	r6,0(r2)
    3a84:	11c00117 	ldw	r7,4(r2)
    3a88:	d8800717 	ldw	r2,28(sp)
    3a8c:	0009883a 	mov	r4,zero
    3a90:	014ff834 	movhi	r5,16352
    3a94:	db001615 	stw	r12,88(sp)
    3a98:	15c00044 	addi	r23,r2,1
    3a9c:	000bb300 	call	bb30 <__divdf3>
    3aa0:	800d883a 	mov	r6,r16
    3aa4:	880f883a 	mov	r7,r17
    3aa8:	1009883a 	mov	r4,r2
    3aac:	180b883a 	mov	r5,r3
    3ab0:	000cfc40 	call	cfc4 <__subdf3>
    3ab4:	d9401017 	ldw	r5,64(sp)
    3ab8:	d9000f17 	ldw	r4,60(sp)
    3abc:	102b883a 	mov	r21,r2
    3ac0:	d8c01215 	stw	r3,72(sp)
    3ac4:	000d8c00 	call	d8c0 <__fixdfsi>
    3ac8:	1009883a 	mov	r4,r2
    3acc:	1029883a 	mov	r20,r2
    3ad0:	000d9400 	call	d940 <__floatsidf>
    3ad4:	d9000f17 	ldw	r4,60(sp)
    3ad8:	d9401017 	ldw	r5,64(sp)
    3adc:	100d883a 	mov	r6,r2
    3ae0:	180f883a 	mov	r7,r3
    3ae4:	000cfc40 	call	cfc4 <__subdf3>
    3ae8:	1823883a 	mov	r17,r3
    3aec:	d8c00717 	ldw	r3,28(sp)
    3af0:	d9401217 	ldw	r5,72(sp)
    3af4:	a2000c04 	addi	r8,r20,48
    3af8:	1021883a 	mov	r16,r2
    3afc:	1a000005 	stb	r8,0(r3)
    3b00:	800d883a 	mov	r6,r16
    3b04:	880f883a 	mov	r7,r17
    3b08:	a809883a 	mov	r4,r21
    3b0c:	4029883a 	mov	r20,r8
    3b10:	000c5880 	call	c588 <__gedf2>
    3b14:	00841d16 	blt	zero,r2,4b8c <_dtoa_r+0x15f4>
    3b18:	800d883a 	mov	r6,r16
    3b1c:	880f883a 	mov	r7,r17
    3b20:	0009883a 	mov	r4,zero
    3b24:	014ffc34 	movhi	r5,16368
    3b28:	000cfc40 	call	cfc4 <__subdf3>
    3b2c:	d9401217 	ldw	r5,72(sp)
    3b30:	100d883a 	mov	r6,r2
    3b34:	180f883a 	mov	r7,r3
    3b38:	a809883a 	mov	r4,r21
    3b3c:	000c5880 	call	c588 <__gedf2>
    3b40:	db001617 	ldw	r12,88(sp)
    3b44:	00840e16 	blt	zero,r2,4b80 <_dtoa_r+0x15e8>
    3b48:	00800044 	movi	r2,1
    3b4c:	13006b0e 	bge	r2,r12,3cfc <_dtoa_r+0x764>
    3b50:	d9000717 	ldw	r4,28(sp)
    3b54:	dd800f15 	stw	r22,60(sp)
    3b58:	dcc01015 	stw	r19,64(sp)
    3b5c:	2319883a 	add	r12,r4,r12
    3b60:	dcc01217 	ldw	r19,72(sp)
    3b64:	602d883a 	mov	r22,r12
    3b68:	dc801215 	stw	r18,72(sp)
    3b6c:	b825883a 	mov	r18,r23
    3b70:	00000906 	br	3b98 <_dtoa_r+0x600>
    3b74:	000cfc40 	call	cfc4 <__subdf3>
    3b78:	a80d883a 	mov	r6,r21
    3b7c:	980f883a 	mov	r7,r19
    3b80:	1009883a 	mov	r4,r2
    3b84:	180b883a 	mov	r5,r3
    3b88:	000c6640 	call	c664 <__ledf2>
    3b8c:	1003e816 	blt	r2,zero,4b30 <_dtoa_r+0x1598>
    3b90:	b825883a 	mov	r18,r23
    3b94:	bd83e926 	beq	r23,r22,4b3c <_dtoa_r+0x15a4>
    3b98:	a809883a 	mov	r4,r21
    3b9c:	980b883a 	mov	r5,r19
    3ba0:	000d883a 	mov	r6,zero
    3ba4:	01d00934 	movhi	r7,16420
    3ba8:	000c7580 	call	c758 <__muldf3>
    3bac:	000d883a 	mov	r6,zero
    3bb0:	01d00934 	movhi	r7,16420
    3bb4:	8009883a 	mov	r4,r16
    3bb8:	880b883a 	mov	r5,r17
    3bbc:	102b883a 	mov	r21,r2
    3bc0:	1827883a 	mov	r19,r3
    3bc4:	000c7580 	call	c758 <__muldf3>
    3bc8:	180b883a 	mov	r5,r3
    3bcc:	1009883a 	mov	r4,r2
    3bd0:	1821883a 	mov	r16,r3
    3bd4:	1023883a 	mov	r17,r2
    3bd8:	000d8c00 	call	d8c0 <__fixdfsi>
    3bdc:	1009883a 	mov	r4,r2
    3be0:	1029883a 	mov	r20,r2
    3be4:	000d9400 	call	d940 <__floatsidf>
    3be8:	8809883a 	mov	r4,r17
    3bec:	800b883a 	mov	r5,r16
    3bf0:	100d883a 	mov	r6,r2
    3bf4:	180f883a 	mov	r7,r3
    3bf8:	000cfc40 	call	cfc4 <__subdf3>
    3bfc:	a5000c04 	addi	r20,r20,48
    3c00:	a80d883a 	mov	r6,r21
    3c04:	980f883a 	mov	r7,r19
    3c08:	1009883a 	mov	r4,r2
    3c0c:	180b883a 	mov	r5,r3
    3c10:	95000005 	stb	r20,0(r18)
    3c14:	1021883a 	mov	r16,r2
    3c18:	1823883a 	mov	r17,r3
    3c1c:	000c6640 	call	c664 <__ledf2>
    3c20:	bdc00044 	addi	r23,r23,1
    3c24:	800d883a 	mov	r6,r16
    3c28:	880f883a 	mov	r7,r17
    3c2c:	0009883a 	mov	r4,zero
    3c30:	014ffc34 	movhi	r5,16368
    3c34:	103fcf0e 	bge	r2,zero,3b74 <__alt_data_end+0xfffd3b74>
    3c38:	d8c01317 	ldw	r3,76(sp)
    3c3c:	d8c00515 	stw	r3,20(sp)
    3c40:	d9400917 	ldw	r5,36(sp)
    3c44:	e009883a 	mov	r4,fp
    3c48:	0006cf80 	call	6cf8 <_Bfree>
    3c4c:	d9000517 	ldw	r4,20(sp)
    3c50:	d9802317 	ldw	r6,140(sp)
    3c54:	d9c02517 	ldw	r7,148(sp)
    3c58:	b8000005 	stb	zero,0(r23)
    3c5c:	20800044 	addi	r2,r4,1
    3c60:	30800015 	stw	r2,0(r6)
    3c64:	3802aa26 	beq	r7,zero,4710 <_dtoa_r+0x1178>
    3c68:	3dc00015 	stw	r23,0(r7)
    3c6c:	d8800717 	ldw	r2,28(sp)
    3c70:	003e7906 	br	3658 <__alt_data_end+0xfffd3658>
    3c74:	00800434 	movhi	r2,16
    3c78:	10bfffc4 	addi	r2,r2,-1
    3c7c:	88a2703a 	and	r17,r17,r2
    3c80:	883e851e 	bne	r17,zero,3698 <__alt_data_end+0xfffd3698>
    3c84:	008000b4 	movhi	r2,2
    3c88:	10a12e04 	addi	r2,r2,-31560
    3c8c:	003e8406 	br	36a0 <__alt_data_end+0xfffd36a0>
    3c90:	10c00204 	addi	r3,r2,8
    3c94:	003e8706 	br	36b4 <__alt_data_end+0xfffd36b4>
    3c98:	01400434 	movhi	r5,16
    3c9c:	297fffc4 	addi	r5,r5,-1
    3ca0:	994a703a 	and	r5,r19,r5
    3ca4:	9009883a 	mov	r4,r18
    3ca8:	843f0044 	addi	r16,r16,-1023
    3cac:	294ffc34 	orhi	r5,r5,16368
    3cb0:	dd800217 	ldw	r22,8(sp)
    3cb4:	d8001115 	stw	zero,68(sp)
    3cb8:	003ea506 	br	3750 <__alt_data_end+0xfffd3750>
    3cbc:	008000b4 	movhi	r2,2
    3cc0:	10a12504 	addi	r2,r2,-31596
    3cc4:	003e6406 	br	3658 <__alt_data_end+0xfffd3658>
    3cc8:	e0001115 	stw	zero,68(fp)
    3ccc:	000b883a 	mov	r5,zero
    3cd0:	e009883a 	mov	r4,fp
    3cd4:	0006c500 	call	6c50 <_Balloc>
    3cd8:	01bfffc4 	movi	r6,-1
    3cdc:	01c00044 	movi	r7,1
    3ce0:	d8800715 	stw	r2,28(sp)
    3ce4:	d9800c15 	stw	r6,48(sp)
    3ce8:	e0801015 	stw	r2,64(fp)
    3cec:	d8000315 	stw	zero,12(sp)
    3cf0:	d9c00b15 	stw	r7,44(sp)
    3cf4:	d9800615 	stw	r6,24(sp)
    3cf8:	d8002215 	stw	zero,136(sp)
    3cfc:	d8800117 	ldw	r2,4(sp)
    3d00:	10008916 	blt	r2,zero,3f28 <_dtoa_r+0x990>
    3d04:	d9000517 	ldw	r4,20(sp)
    3d08:	00c00384 	movi	r3,14
    3d0c:	19008616 	blt	r3,r4,3f28 <_dtoa_r+0x990>
    3d10:	200490fa 	slli	r2,r4,3
    3d14:	00c000b4 	movhi	r3,2
    3d18:	d9802217 	ldw	r6,136(sp)
    3d1c:	18e14d04 	addi	r3,r3,-31436
    3d20:	1885883a 	add	r2,r3,r2
    3d24:	14000017 	ldw	r16,0(r2)
    3d28:	14400117 	ldw	r17,4(r2)
    3d2c:	30016316 	blt	r6,zero,42bc <_dtoa_r+0xd24>
    3d30:	800d883a 	mov	r6,r16
    3d34:	880f883a 	mov	r7,r17
    3d38:	9009883a 	mov	r4,r18
    3d3c:	980b883a 	mov	r5,r19
    3d40:	000bb300 	call	bb30 <__divdf3>
    3d44:	180b883a 	mov	r5,r3
    3d48:	1009883a 	mov	r4,r2
    3d4c:	000d8c00 	call	d8c0 <__fixdfsi>
    3d50:	1009883a 	mov	r4,r2
    3d54:	102b883a 	mov	r21,r2
    3d58:	000d9400 	call	d940 <__floatsidf>
    3d5c:	800d883a 	mov	r6,r16
    3d60:	880f883a 	mov	r7,r17
    3d64:	1009883a 	mov	r4,r2
    3d68:	180b883a 	mov	r5,r3
    3d6c:	000c7580 	call	c758 <__muldf3>
    3d70:	100d883a 	mov	r6,r2
    3d74:	180f883a 	mov	r7,r3
    3d78:	9009883a 	mov	r4,r18
    3d7c:	980b883a 	mov	r5,r19
    3d80:	000cfc40 	call	cfc4 <__subdf3>
    3d84:	d9c00717 	ldw	r7,28(sp)
    3d88:	1009883a 	mov	r4,r2
    3d8c:	a8800c04 	addi	r2,r21,48
    3d90:	38800005 	stb	r2,0(r7)
    3d94:	3dc00044 	addi	r23,r7,1
    3d98:	d9c00617 	ldw	r7,24(sp)
    3d9c:	01800044 	movi	r6,1
    3da0:	180b883a 	mov	r5,r3
    3da4:	2005883a 	mov	r2,r4
    3da8:	39803826 	beq	r7,r6,3e8c <_dtoa_r+0x8f4>
    3dac:	000d883a 	mov	r6,zero
    3db0:	01d00934 	movhi	r7,16420
    3db4:	000c7580 	call	c758 <__muldf3>
    3db8:	000d883a 	mov	r6,zero
    3dbc:	000f883a 	mov	r7,zero
    3dc0:	1009883a 	mov	r4,r2
    3dc4:	180b883a 	mov	r5,r3
    3dc8:	1025883a 	mov	r18,r2
    3dcc:	1827883a 	mov	r19,r3
    3dd0:	000c5000 	call	c500 <__eqdf2>
    3dd4:	103f9a26 	beq	r2,zero,3c40 <__alt_data_end+0xfffd3c40>
    3dd8:	d9c00617 	ldw	r7,24(sp)
    3ddc:	d8c00717 	ldw	r3,28(sp)
    3de0:	b829883a 	mov	r20,r23
    3de4:	38bfffc4 	addi	r2,r7,-1
    3de8:	18ad883a 	add	r22,r3,r2
    3dec:	00000a06 	br	3e18 <_dtoa_r+0x880>
    3df0:	000c7580 	call	c758 <__muldf3>
    3df4:	000d883a 	mov	r6,zero
    3df8:	000f883a 	mov	r7,zero
    3dfc:	1009883a 	mov	r4,r2
    3e00:	180b883a 	mov	r5,r3
    3e04:	1025883a 	mov	r18,r2
    3e08:	1827883a 	mov	r19,r3
    3e0c:	b829883a 	mov	r20,r23
    3e10:	000c5000 	call	c500 <__eqdf2>
    3e14:	103f8a26 	beq	r2,zero,3c40 <__alt_data_end+0xfffd3c40>
    3e18:	800d883a 	mov	r6,r16
    3e1c:	880f883a 	mov	r7,r17
    3e20:	9009883a 	mov	r4,r18
    3e24:	980b883a 	mov	r5,r19
    3e28:	000bb300 	call	bb30 <__divdf3>
    3e2c:	180b883a 	mov	r5,r3
    3e30:	1009883a 	mov	r4,r2
    3e34:	000d8c00 	call	d8c0 <__fixdfsi>
    3e38:	1009883a 	mov	r4,r2
    3e3c:	102b883a 	mov	r21,r2
    3e40:	000d9400 	call	d940 <__floatsidf>
    3e44:	800d883a 	mov	r6,r16
    3e48:	880f883a 	mov	r7,r17
    3e4c:	1009883a 	mov	r4,r2
    3e50:	180b883a 	mov	r5,r3
    3e54:	000c7580 	call	c758 <__muldf3>
    3e58:	100d883a 	mov	r6,r2
    3e5c:	180f883a 	mov	r7,r3
    3e60:	9009883a 	mov	r4,r18
    3e64:	980b883a 	mov	r5,r19
    3e68:	000cfc40 	call	cfc4 <__subdf3>
    3e6c:	aa000c04 	addi	r8,r21,48
    3e70:	a2000005 	stb	r8,0(r20)
    3e74:	000d883a 	mov	r6,zero
    3e78:	01d00934 	movhi	r7,16420
    3e7c:	1009883a 	mov	r4,r2
    3e80:	180b883a 	mov	r5,r3
    3e84:	a5c00044 	addi	r23,r20,1
    3e88:	b53fd91e 	bne	r22,r20,3df0 <__alt_data_end+0xfffd3df0>
    3e8c:	100d883a 	mov	r6,r2
    3e90:	180f883a 	mov	r7,r3
    3e94:	1009883a 	mov	r4,r2
    3e98:	180b883a 	mov	r5,r3
    3e9c:	000b2840 	call	b284 <__adddf3>
    3ea0:	100d883a 	mov	r6,r2
    3ea4:	180f883a 	mov	r7,r3
    3ea8:	8009883a 	mov	r4,r16
    3eac:	880b883a 	mov	r5,r17
    3eb0:	1027883a 	mov	r19,r2
    3eb4:	1825883a 	mov	r18,r3
    3eb8:	000c6640 	call	c664 <__ledf2>
    3ebc:	10000816 	blt	r2,zero,3ee0 <_dtoa_r+0x948>
    3ec0:	980d883a 	mov	r6,r19
    3ec4:	900f883a 	mov	r7,r18
    3ec8:	8009883a 	mov	r4,r16
    3ecc:	880b883a 	mov	r5,r17
    3ed0:	000c5000 	call	c500 <__eqdf2>
    3ed4:	103f5a1e 	bne	r2,zero,3c40 <__alt_data_end+0xfffd3c40>
    3ed8:	ad40004c 	andi	r21,r21,1
    3edc:	a83f5826 	beq	r21,zero,3c40 <__alt_data_end+0xfffd3c40>
    3ee0:	bd3fffc3 	ldbu	r20,-1(r23)
    3ee4:	b8bfffc4 	addi	r2,r23,-1
    3ee8:	1007883a 	mov	r3,r2
    3eec:	01400e44 	movi	r5,57
    3ef0:	d9800717 	ldw	r6,28(sp)
    3ef4:	00000506 	br	3f0c <_dtoa_r+0x974>
    3ef8:	18ffffc4 	addi	r3,r3,-1
    3efc:	11824726 	beq	r2,r6,481c <_dtoa_r+0x1284>
    3f00:	1d000003 	ldbu	r20,0(r3)
    3f04:	102f883a 	mov	r23,r2
    3f08:	10bfffc4 	addi	r2,r2,-1
    3f0c:	a1003fcc 	andi	r4,r20,255
    3f10:	2100201c 	xori	r4,r4,128
    3f14:	213fe004 	addi	r4,r4,-128
    3f18:	217ff726 	beq	r4,r5,3ef8 <__alt_data_end+0xfffd3ef8>
    3f1c:	a2000044 	addi	r8,r20,1
    3f20:	12000005 	stb	r8,0(r2)
    3f24:	003f4606 	br	3c40 <__alt_data_end+0xfffd3c40>
    3f28:	d9000b17 	ldw	r4,44(sp)
    3f2c:	2000c826 	beq	r4,zero,4250 <_dtoa_r+0xcb8>
    3f30:	d9800317 	ldw	r6,12(sp)
    3f34:	00c00044 	movi	r3,1
    3f38:	1980f90e 	bge	r3,r6,4320 <_dtoa_r+0xd88>
    3f3c:	d8800617 	ldw	r2,24(sp)
    3f40:	d8c00a17 	ldw	r3,40(sp)
    3f44:	157fffc4 	addi	r21,r2,-1
    3f48:	1d41f316 	blt	r3,r21,4718 <_dtoa_r+0x1180>
    3f4c:	1d6bc83a 	sub	r21,r3,r21
    3f50:	d9c00617 	ldw	r7,24(sp)
    3f54:	3802aa16 	blt	r7,zero,4a00 <_dtoa_r+0x1468>
    3f58:	dd000817 	ldw	r20,32(sp)
    3f5c:	d8800617 	ldw	r2,24(sp)
    3f60:	d8c00817 	ldw	r3,32(sp)
    3f64:	01400044 	movi	r5,1
    3f68:	e009883a 	mov	r4,fp
    3f6c:	1887883a 	add	r3,r3,r2
    3f70:	d8c00815 	stw	r3,32(sp)
    3f74:	b0ad883a 	add	r22,r22,r2
    3f78:	00070840 	call	7084 <__i2b>
    3f7c:	1023883a 	mov	r17,r2
    3f80:	a0000826 	beq	r20,zero,3fa4 <_dtoa_r+0xa0c>
    3f84:	0580070e 	bge	zero,r22,3fa4 <_dtoa_r+0xa0c>
    3f88:	a005883a 	mov	r2,r20
    3f8c:	b500b916 	blt	r22,r20,4274 <_dtoa_r+0xcdc>
    3f90:	d9000817 	ldw	r4,32(sp)
    3f94:	a0a9c83a 	sub	r20,r20,r2
    3f98:	b0adc83a 	sub	r22,r22,r2
    3f9c:	2089c83a 	sub	r4,r4,r2
    3fa0:	d9000815 	stw	r4,32(sp)
    3fa4:	d9800a17 	ldw	r6,40(sp)
    3fa8:	0181810e 	bge	zero,r6,45b0 <_dtoa_r+0x1018>
    3fac:	d9c00b17 	ldw	r7,44(sp)
    3fb0:	3800b326 	beq	r7,zero,4280 <_dtoa_r+0xce8>
    3fb4:	a800b226 	beq	r21,zero,4280 <_dtoa_r+0xce8>
    3fb8:	880b883a 	mov	r5,r17
    3fbc:	a80d883a 	mov	r6,r21
    3fc0:	e009883a 	mov	r4,fp
    3fc4:	000734c0 	call	734c <__pow5mult>
    3fc8:	d9800917 	ldw	r6,36(sp)
    3fcc:	100b883a 	mov	r5,r2
    3fd0:	e009883a 	mov	r4,fp
    3fd4:	1023883a 	mov	r17,r2
    3fd8:	00070c00 	call	70c0 <__multiply>
    3fdc:	1021883a 	mov	r16,r2
    3fe0:	d8800a17 	ldw	r2,40(sp)
    3fe4:	d9400917 	ldw	r5,36(sp)
    3fe8:	e009883a 	mov	r4,fp
    3fec:	1545c83a 	sub	r2,r2,r21
    3ff0:	d8800a15 	stw	r2,40(sp)
    3ff4:	0006cf80 	call	6cf8 <_Bfree>
    3ff8:	d8c00a17 	ldw	r3,40(sp)
    3ffc:	18009f1e 	bne	r3,zero,427c <_dtoa_r+0xce4>
    4000:	05c00044 	movi	r23,1
    4004:	e009883a 	mov	r4,fp
    4008:	b80b883a 	mov	r5,r23
    400c:	00070840 	call	7084 <__i2b>
    4010:	d9000d17 	ldw	r4,52(sp)
    4014:	102b883a 	mov	r21,r2
    4018:	2000ce26 	beq	r4,zero,4354 <_dtoa_r+0xdbc>
    401c:	200d883a 	mov	r6,r4
    4020:	100b883a 	mov	r5,r2
    4024:	e009883a 	mov	r4,fp
    4028:	000734c0 	call	734c <__pow5mult>
    402c:	d9800317 	ldw	r6,12(sp)
    4030:	102b883a 	mov	r21,r2
    4034:	b981810e 	bge	r23,r6,463c <_dtoa_r+0x10a4>
    4038:	0027883a 	mov	r19,zero
    403c:	a8800417 	ldw	r2,16(r21)
    4040:	05c00804 	movi	r23,32
    4044:	10800104 	addi	r2,r2,4
    4048:	1085883a 	add	r2,r2,r2
    404c:	1085883a 	add	r2,r2,r2
    4050:	a885883a 	add	r2,r21,r2
    4054:	11000017 	ldw	r4,0(r2)
    4058:	0006f6c0 	call	6f6c <__hi0bits>
    405c:	b885c83a 	sub	r2,r23,r2
    4060:	1585883a 	add	r2,r2,r22
    4064:	108007cc 	andi	r2,r2,31
    4068:	1000b326 	beq	r2,zero,4338 <_dtoa_r+0xda0>
    406c:	00c00804 	movi	r3,32
    4070:	1887c83a 	sub	r3,r3,r2
    4074:	01000104 	movi	r4,4
    4078:	20c2cd0e 	bge	r4,r3,4bb0 <_dtoa_r+0x1618>
    407c:	00c00704 	movi	r3,28
    4080:	1885c83a 	sub	r2,r3,r2
    4084:	d8c00817 	ldw	r3,32(sp)
    4088:	a0a9883a 	add	r20,r20,r2
    408c:	b0ad883a 	add	r22,r22,r2
    4090:	1887883a 	add	r3,r3,r2
    4094:	d8c00815 	stw	r3,32(sp)
    4098:	d9800817 	ldw	r6,32(sp)
    409c:	0180040e 	bge	zero,r6,40b0 <_dtoa_r+0xb18>
    40a0:	800b883a 	mov	r5,r16
    40a4:	e009883a 	mov	r4,fp
    40a8:	000748c0 	call	748c <__lshift>
    40ac:	1021883a 	mov	r16,r2
    40b0:	0580050e 	bge	zero,r22,40c8 <_dtoa_r+0xb30>
    40b4:	a80b883a 	mov	r5,r21
    40b8:	b00d883a 	mov	r6,r22
    40bc:	e009883a 	mov	r4,fp
    40c0:	000748c0 	call	748c <__lshift>
    40c4:	102b883a 	mov	r21,r2
    40c8:	d9c00e17 	ldw	r7,56(sp)
    40cc:	3801211e 	bne	r7,zero,4554 <_dtoa_r+0xfbc>
    40d0:	d9800617 	ldw	r6,24(sp)
    40d4:	0181380e 	bge	zero,r6,45b8 <_dtoa_r+0x1020>
    40d8:	d8c00b17 	ldw	r3,44(sp)
    40dc:	1800ab1e 	bne	r3,zero,438c <_dtoa_r+0xdf4>
    40e0:	dc800717 	ldw	r18,28(sp)
    40e4:	dcc00617 	ldw	r19,24(sp)
    40e8:	9029883a 	mov	r20,r18
    40ec:	00000206 	br	40f8 <_dtoa_r+0xb60>
    40f0:	0006d200 	call	6d20 <__multadd>
    40f4:	1021883a 	mov	r16,r2
    40f8:	a80b883a 	mov	r5,r21
    40fc:	8009883a 	mov	r4,r16
    4100:	00033700 	call	3370 <quorem>
    4104:	10800c04 	addi	r2,r2,48
    4108:	90800005 	stb	r2,0(r18)
    410c:	94800044 	addi	r18,r18,1
    4110:	9507c83a 	sub	r3,r18,r20
    4114:	000f883a 	mov	r7,zero
    4118:	01800284 	movi	r6,10
    411c:	800b883a 	mov	r5,r16
    4120:	e009883a 	mov	r4,fp
    4124:	1cfff216 	blt	r3,r19,40f0 <__alt_data_end+0xfffd40f0>
    4128:	1011883a 	mov	r8,r2
    412c:	d8800617 	ldw	r2,24(sp)
    4130:	0082370e 	bge	zero,r2,4a10 <_dtoa_r+0x1478>
    4134:	d9000717 	ldw	r4,28(sp)
    4138:	0025883a 	mov	r18,zero
    413c:	20af883a 	add	r23,r4,r2
    4140:	01800044 	movi	r6,1
    4144:	800b883a 	mov	r5,r16
    4148:	e009883a 	mov	r4,fp
    414c:	da001715 	stw	r8,92(sp)
    4150:	000748c0 	call	748c <__lshift>
    4154:	a80b883a 	mov	r5,r21
    4158:	1009883a 	mov	r4,r2
    415c:	d8800915 	stw	r2,36(sp)
    4160:	00075d40 	call	75d4 <__mcmp>
    4164:	da001717 	ldw	r8,92(sp)
    4168:	0081800e 	bge	zero,r2,476c <_dtoa_r+0x11d4>
    416c:	b93fffc3 	ldbu	r4,-1(r23)
    4170:	b8bfffc4 	addi	r2,r23,-1
    4174:	1007883a 	mov	r3,r2
    4178:	01800e44 	movi	r6,57
    417c:	d9c00717 	ldw	r7,28(sp)
    4180:	00000506 	br	4198 <_dtoa_r+0xc00>
    4184:	18ffffc4 	addi	r3,r3,-1
    4188:	11c12326 	beq	r2,r7,4618 <_dtoa_r+0x1080>
    418c:	19000003 	ldbu	r4,0(r3)
    4190:	102f883a 	mov	r23,r2
    4194:	10bfffc4 	addi	r2,r2,-1
    4198:	21403fcc 	andi	r5,r4,255
    419c:	2940201c 	xori	r5,r5,128
    41a0:	297fe004 	addi	r5,r5,-128
    41a4:	29bff726 	beq	r5,r6,4184 <__alt_data_end+0xfffd4184>
    41a8:	21000044 	addi	r4,r4,1
    41ac:	11000005 	stb	r4,0(r2)
    41b0:	a80b883a 	mov	r5,r21
    41b4:	e009883a 	mov	r4,fp
    41b8:	0006cf80 	call	6cf8 <_Bfree>
    41bc:	883ea026 	beq	r17,zero,3c40 <__alt_data_end+0xfffd3c40>
    41c0:	90000426 	beq	r18,zero,41d4 <_dtoa_r+0xc3c>
    41c4:	94400326 	beq	r18,r17,41d4 <_dtoa_r+0xc3c>
    41c8:	900b883a 	mov	r5,r18
    41cc:	e009883a 	mov	r4,fp
    41d0:	0006cf80 	call	6cf8 <_Bfree>
    41d4:	880b883a 	mov	r5,r17
    41d8:	e009883a 	mov	r4,fp
    41dc:	0006cf80 	call	6cf8 <_Bfree>
    41e0:	003e9706 	br	3c40 <__alt_data_end+0xfffd3c40>
    41e4:	01800044 	movi	r6,1
    41e8:	d9800e15 	stw	r6,56(sp)
    41ec:	003d9606 	br	3848 <__alt_data_end+0xfffd3848>
    41f0:	d8800817 	ldw	r2,32(sp)
    41f4:	d8c00517 	ldw	r3,20(sp)
    41f8:	d8000d15 	stw	zero,52(sp)
    41fc:	10c5c83a 	sub	r2,r2,r3
    4200:	00c9c83a 	sub	r4,zero,r3
    4204:	d8800815 	stw	r2,32(sp)
    4208:	d9000a15 	stw	r4,40(sp)
    420c:	003d9706 	br	386c <__alt_data_end+0xfffd386c>
    4210:	05adc83a 	sub	r22,zero,r22
    4214:	dd800815 	stw	r22,32(sp)
    4218:	002d883a 	mov	r22,zero
    421c:	003d8e06 	br	3858 <__alt_data_end+0xfffd3858>
    4220:	d9000517 	ldw	r4,20(sp)
    4224:	000d9400 	call	d940 <__floatsidf>
    4228:	100d883a 	mov	r6,r2
    422c:	180f883a 	mov	r7,r3
    4230:	a009883a 	mov	r4,r20
    4234:	880b883a 	mov	r5,r17
    4238:	000c5000 	call	c500 <__eqdf2>
    423c:	103d7126 	beq	r2,zero,3804 <__alt_data_end+0xfffd3804>
    4240:	d9c00517 	ldw	r7,20(sp)
    4244:	39ffffc4 	addi	r7,r7,-1
    4248:	d9c00515 	stw	r7,20(sp)
    424c:	003d6d06 	br	3804 <__alt_data_end+0xfffd3804>
    4250:	dd400a17 	ldw	r21,40(sp)
    4254:	dd000817 	ldw	r20,32(sp)
    4258:	0023883a 	mov	r17,zero
    425c:	003f4806 	br	3f80 <__alt_data_end+0xfffd3f80>
    4260:	10e3c83a 	sub	r17,r2,r3
    4264:	9448983a 	sll	r4,r18,r17
    4268:	003d3206 	br	3734 <__alt_data_end+0xfffd3734>
    426c:	d8000e15 	stw	zero,56(sp)
    4270:	003d7506 	br	3848 <__alt_data_end+0xfffd3848>
    4274:	b005883a 	mov	r2,r22
    4278:	003f4506 	br	3f90 <__alt_data_end+0xfffd3f90>
    427c:	dc000915 	stw	r16,36(sp)
    4280:	d9800a17 	ldw	r6,40(sp)
    4284:	d9400917 	ldw	r5,36(sp)
    4288:	e009883a 	mov	r4,fp
    428c:	000734c0 	call	734c <__pow5mult>
    4290:	1021883a 	mov	r16,r2
    4294:	003f5a06 	br	4000 <__alt_data_end+0xfffd4000>
    4298:	01c00044 	movi	r7,1
    429c:	d9c00b15 	stw	r7,44(sp)
    42a0:	d8802217 	ldw	r2,136(sp)
    42a4:	0081280e 	bge	zero,r2,4748 <_dtoa_r+0x11b0>
    42a8:	100d883a 	mov	r6,r2
    42ac:	1021883a 	mov	r16,r2
    42b0:	d8800c15 	stw	r2,48(sp)
    42b4:	d8800615 	stw	r2,24(sp)
    42b8:	003d8806 	br	38dc <__alt_data_end+0xfffd38dc>
    42bc:	d8800617 	ldw	r2,24(sp)
    42c0:	00be9b16 	blt	zero,r2,3d30 <__alt_data_end+0xfffd3d30>
    42c4:	10010f1e 	bne	r2,zero,4704 <_dtoa_r+0x116c>
    42c8:	880b883a 	mov	r5,r17
    42cc:	000d883a 	mov	r6,zero
    42d0:	01d00534 	movhi	r7,16404
    42d4:	8009883a 	mov	r4,r16
    42d8:	000c7580 	call	c758 <__muldf3>
    42dc:	900d883a 	mov	r6,r18
    42e0:	980f883a 	mov	r7,r19
    42e4:	1009883a 	mov	r4,r2
    42e8:	180b883a 	mov	r5,r3
    42ec:	000c5880 	call	c588 <__gedf2>
    42f0:	002b883a 	mov	r21,zero
    42f4:	0023883a 	mov	r17,zero
    42f8:	1000bf16 	blt	r2,zero,45f8 <_dtoa_r+0x1060>
    42fc:	d9802217 	ldw	r6,136(sp)
    4300:	ddc00717 	ldw	r23,28(sp)
    4304:	018c303a 	nor	r6,zero,r6
    4308:	d9800515 	stw	r6,20(sp)
    430c:	a80b883a 	mov	r5,r21
    4310:	e009883a 	mov	r4,fp
    4314:	0006cf80 	call	6cf8 <_Bfree>
    4318:	883e4926 	beq	r17,zero,3c40 <__alt_data_end+0xfffd3c40>
    431c:	003fad06 	br	41d4 <__alt_data_end+0xfffd41d4>
    4320:	d9c01117 	ldw	r7,68(sp)
    4324:	3801bc26 	beq	r7,zero,4a18 <_dtoa_r+0x1480>
    4328:	10810cc4 	addi	r2,r2,1075
    432c:	dd400a17 	ldw	r21,40(sp)
    4330:	dd000817 	ldw	r20,32(sp)
    4334:	003f0a06 	br	3f60 <__alt_data_end+0xfffd3f60>
    4338:	00800704 	movi	r2,28
    433c:	d9000817 	ldw	r4,32(sp)
    4340:	a0a9883a 	add	r20,r20,r2
    4344:	b0ad883a 	add	r22,r22,r2
    4348:	2089883a 	add	r4,r4,r2
    434c:	d9000815 	stw	r4,32(sp)
    4350:	003f5106 	br	4098 <__alt_data_end+0xfffd4098>
    4354:	d8c00317 	ldw	r3,12(sp)
    4358:	b8c1fc0e 	bge	r23,r3,4b4c <_dtoa_r+0x15b4>
    435c:	0027883a 	mov	r19,zero
    4360:	b805883a 	mov	r2,r23
    4364:	003f3e06 	br	4060 <__alt_data_end+0xfffd4060>
    4368:	880b883a 	mov	r5,r17
    436c:	e009883a 	mov	r4,fp
    4370:	000f883a 	mov	r7,zero
    4374:	01800284 	movi	r6,10
    4378:	0006d200 	call	6d20 <__multadd>
    437c:	d9000c17 	ldw	r4,48(sp)
    4380:	1023883a 	mov	r17,r2
    4384:	0102040e 	bge	zero,r4,4b98 <_dtoa_r+0x1600>
    4388:	d9000615 	stw	r4,24(sp)
    438c:	0500050e 	bge	zero,r20,43a4 <_dtoa_r+0xe0c>
    4390:	880b883a 	mov	r5,r17
    4394:	a00d883a 	mov	r6,r20
    4398:	e009883a 	mov	r4,fp
    439c:	000748c0 	call	748c <__lshift>
    43a0:	1023883a 	mov	r17,r2
    43a4:	9801241e 	bne	r19,zero,4838 <_dtoa_r+0x12a0>
    43a8:	8829883a 	mov	r20,r17
    43ac:	d9000617 	ldw	r4,24(sp)
    43b0:	dcc00717 	ldw	r19,28(sp)
    43b4:	9480004c 	andi	r18,r18,1
    43b8:	20bfffc4 	addi	r2,r4,-1
    43bc:	9885883a 	add	r2,r19,r2
    43c0:	d8800415 	stw	r2,16(sp)
    43c4:	dc800615 	stw	r18,24(sp)
    43c8:	a80b883a 	mov	r5,r21
    43cc:	8009883a 	mov	r4,r16
    43d0:	00033700 	call	3370 <quorem>
    43d4:	880b883a 	mov	r5,r17
    43d8:	8009883a 	mov	r4,r16
    43dc:	102f883a 	mov	r23,r2
    43e0:	00075d40 	call	75d4 <__mcmp>
    43e4:	a80b883a 	mov	r5,r21
    43e8:	a00d883a 	mov	r6,r20
    43ec:	e009883a 	mov	r4,fp
    43f0:	102d883a 	mov	r22,r2
    43f4:	00076340 	call	7634 <__mdiff>
    43f8:	1007883a 	mov	r3,r2
    43fc:	10800317 	ldw	r2,12(r2)
    4400:	bc800c04 	addi	r18,r23,48
    4404:	180b883a 	mov	r5,r3
    4408:	10004e1e 	bne	r2,zero,4544 <_dtoa_r+0xfac>
    440c:	8009883a 	mov	r4,r16
    4410:	d8c01615 	stw	r3,88(sp)
    4414:	00075d40 	call	75d4 <__mcmp>
    4418:	d8c01617 	ldw	r3,88(sp)
    441c:	e009883a 	mov	r4,fp
    4420:	d8801615 	stw	r2,88(sp)
    4424:	180b883a 	mov	r5,r3
    4428:	0006cf80 	call	6cf8 <_Bfree>
    442c:	d8801617 	ldw	r2,88(sp)
    4430:	1000041e 	bne	r2,zero,4444 <_dtoa_r+0xeac>
    4434:	d9800317 	ldw	r6,12(sp)
    4438:	3000021e 	bne	r6,zero,4444 <_dtoa_r+0xeac>
    443c:	d8c00617 	ldw	r3,24(sp)
    4440:	18003726 	beq	r3,zero,4520 <_dtoa_r+0xf88>
    4444:	b0002016 	blt	r22,zero,44c8 <_dtoa_r+0xf30>
    4448:	b000041e 	bne	r22,zero,445c <_dtoa_r+0xec4>
    444c:	d9000317 	ldw	r4,12(sp)
    4450:	2000021e 	bne	r4,zero,445c <_dtoa_r+0xec4>
    4454:	d8c00617 	ldw	r3,24(sp)
    4458:	18001b26 	beq	r3,zero,44c8 <_dtoa_r+0xf30>
    445c:	00810716 	blt	zero,r2,487c <_dtoa_r+0x12e4>
    4460:	d8c00417 	ldw	r3,16(sp)
    4464:	9d800044 	addi	r22,r19,1
    4468:	9c800005 	stb	r18,0(r19)
    446c:	b02f883a 	mov	r23,r22
    4470:	98c10626 	beq	r19,r3,488c <_dtoa_r+0x12f4>
    4474:	800b883a 	mov	r5,r16
    4478:	000f883a 	mov	r7,zero
    447c:	01800284 	movi	r6,10
    4480:	e009883a 	mov	r4,fp
    4484:	0006d200 	call	6d20 <__multadd>
    4488:	1021883a 	mov	r16,r2
    448c:	000f883a 	mov	r7,zero
    4490:	01800284 	movi	r6,10
    4494:	880b883a 	mov	r5,r17
    4498:	e009883a 	mov	r4,fp
    449c:	8d002526 	beq	r17,r20,4534 <_dtoa_r+0xf9c>
    44a0:	0006d200 	call	6d20 <__multadd>
    44a4:	a00b883a 	mov	r5,r20
    44a8:	000f883a 	mov	r7,zero
    44ac:	01800284 	movi	r6,10
    44b0:	e009883a 	mov	r4,fp
    44b4:	1023883a 	mov	r17,r2
    44b8:	0006d200 	call	6d20 <__multadd>
    44bc:	1029883a 	mov	r20,r2
    44c0:	b027883a 	mov	r19,r22
    44c4:	003fc006 	br	43c8 <__alt_data_end+0xfffd43c8>
    44c8:	9011883a 	mov	r8,r18
    44cc:	00800e0e 	bge	zero,r2,4508 <_dtoa_r+0xf70>
    44d0:	800b883a 	mov	r5,r16
    44d4:	01800044 	movi	r6,1
    44d8:	e009883a 	mov	r4,fp
    44dc:	da001715 	stw	r8,92(sp)
    44e0:	000748c0 	call	748c <__lshift>
    44e4:	a80b883a 	mov	r5,r21
    44e8:	1009883a 	mov	r4,r2
    44ec:	1021883a 	mov	r16,r2
    44f0:	00075d40 	call	75d4 <__mcmp>
    44f4:	da001717 	ldw	r8,92(sp)
    44f8:	0081960e 	bge	zero,r2,4b54 <_dtoa_r+0x15bc>
    44fc:	00800e44 	movi	r2,57
    4500:	40817026 	beq	r8,r2,4ac4 <_dtoa_r+0x152c>
    4504:	ba000c44 	addi	r8,r23,49
    4508:	8825883a 	mov	r18,r17
    450c:	9dc00044 	addi	r23,r19,1
    4510:	9a000005 	stb	r8,0(r19)
    4514:	a023883a 	mov	r17,r20
    4518:	dc000915 	stw	r16,36(sp)
    451c:	003f2406 	br	41b0 <__alt_data_end+0xfffd41b0>
    4520:	00800e44 	movi	r2,57
    4524:	9011883a 	mov	r8,r18
    4528:	90816626 	beq	r18,r2,4ac4 <_dtoa_r+0x152c>
    452c:	05bff516 	blt	zero,r22,4504 <__alt_data_end+0xfffd4504>
    4530:	003ff506 	br	4508 <__alt_data_end+0xfffd4508>
    4534:	0006d200 	call	6d20 <__multadd>
    4538:	1023883a 	mov	r17,r2
    453c:	1029883a 	mov	r20,r2
    4540:	003fdf06 	br	44c0 <__alt_data_end+0xfffd44c0>
    4544:	e009883a 	mov	r4,fp
    4548:	0006cf80 	call	6cf8 <_Bfree>
    454c:	00800044 	movi	r2,1
    4550:	003fbc06 	br	4444 <__alt_data_end+0xfffd4444>
    4554:	a80b883a 	mov	r5,r21
    4558:	8009883a 	mov	r4,r16
    455c:	00075d40 	call	75d4 <__mcmp>
    4560:	103edb0e 	bge	r2,zero,40d0 <__alt_data_end+0xfffd40d0>
    4564:	800b883a 	mov	r5,r16
    4568:	000f883a 	mov	r7,zero
    456c:	01800284 	movi	r6,10
    4570:	e009883a 	mov	r4,fp
    4574:	0006d200 	call	6d20 <__multadd>
    4578:	1021883a 	mov	r16,r2
    457c:	d8800517 	ldw	r2,20(sp)
    4580:	d8c00b17 	ldw	r3,44(sp)
    4584:	10bfffc4 	addi	r2,r2,-1
    4588:	d8800515 	stw	r2,20(sp)
    458c:	183f761e 	bne	r3,zero,4368 <__alt_data_end+0xfffd4368>
    4590:	d9000c17 	ldw	r4,48(sp)
    4594:	0101730e 	bge	zero,r4,4b64 <_dtoa_r+0x15cc>
    4598:	d9000615 	stw	r4,24(sp)
    459c:	003ed006 	br	40e0 <__alt_data_end+0xfffd40e0>
    45a0:	00800084 	movi	r2,2
    45a4:	3081861e 	bne	r6,r2,4bc0 <_dtoa_r+0x1628>
    45a8:	d8000b15 	stw	zero,44(sp)
    45ac:	003f3c06 	br	42a0 <__alt_data_end+0xfffd42a0>
    45b0:	dc000917 	ldw	r16,36(sp)
    45b4:	003e9206 	br	4000 <__alt_data_end+0xfffd4000>
    45b8:	d9c00317 	ldw	r7,12(sp)
    45bc:	00800084 	movi	r2,2
    45c0:	11fec50e 	bge	r2,r7,40d8 <__alt_data_end+0xfffd40d8>
    45c4:	d9000617 	ldw	r4,24(sp)
    45c8:	20013c1e 	bne	r4,zero,4abc <_dtoa_r+0x1524>
    45cc:	a80b883a 	mov	r5,r21
    45d0:	000f883a 	mov	r7,zero
    45d4:	01800144 	movi	r6,5
    45d8:	e009883a 	mov	r4,fp
    45dc:	0006d200 	call	6d20 <__multadd>
    45e0:	100b883a 	mov	r5,r2
    45e4:	8009883a 	mov	r4,r16
    45e8:	102b883a 	mov	r21,r2
    45ec:	00075d40 	call	75d4 <__mcmp>
    45f0:	dc000915 	stw	r16,36(sp)
    45f4:	00bf410e 	bge	zero,r2,42fc <__alt_data_end+0xfffd42fc>
    45f8:	d9c00717 	ldw	r7,28(sp)
    45fc:	00800c44 	movi	r2,49
    4600:	38800005 	stb	r2,0(r7)
    4604:	d8800517 	ldw	r2,20(sp)
    4608:	3dc00044 	addi	r23,r7,1
    460c:	10800044 	addi	r2,r2,1
    4610:	d8800515 	stw	r2,20(sp)
    4614:	003f3d06 	br	430c <__alt_data_end+0xfffd430c>
    4618:	d9800517 	ldw	r6,20(sp)
    461c:	d9c00717 	ldw	r7,28(sp)
    4620:	00800c44 	movi	r2,49
    4624:	31800044 	addi	r6,r6,1
    4628:	d9800515 	stw	r6,20(sp)
    462c:	38800005 	stb	r2,0(r7)
    4630:	003edf06 	br	41b0 <__alt_data_end+0xfffd41b0>
    4634:	d8000b15 	stw	zero,44(sp)
    4638:	003c9f06 	br	38b8 <__alt_data_end+0xfffd38b8>
    463c:	903e7e1e 	bne	r18,zero,4038 <__alt_data_end+0xfffd4038>
    4640:	00800434 	movhi	r2,16
    4644:	10bfffc4 	addi	r2,r2,-1
    4648:	9884703a 	and	r2,r19,r2
    464c:	1000ea1e 	bne	r2,zero,49f8 <_dtoa_r+0x1460>
    4650:	9cdffc2c 	andhi	r19,r19,32752
    4654:	9800e826 	beq	r19,zero,49f8 <_dtoa_r+0x1460>
    4658:	d9c00817 	ldw	r7,32(sp)
    465c:	b5800044 	addi	r22,r22,1
    4660:	04c00044 	movi	r19,1
    4664:	39c00044 	addi	r7,r7,1
    4668:	d9c00815 	stw	r7,32(sp)
    466c:	d8800d17 	ldw	r2,52(sp)
    4670:	103e721e 	bne	r2,zero,403c <__alt_data_end+0xfffd403c>
    4674:	00800044 	movi	r2,1
    4678:	003e7906 	br	4060 <__alt_data_end+0xfffd4060>
    467c:	8009883a 	mov	r4,r16
    4680:	000d9400 	call	d940 <__floatsidf>
    4684:	d9800f17 	ldw	r6,60(sp)
    4688:	d9c01017 	ldw	r7,64(sp)
    468c:	1009883a 	mov	r4,r2
    4690:	180b883a 	mov	r5,r3
    4694:	000c7580 	call	c758 <__muldf3>
    4698:	000d883a 	mov	r6,zero
    469c:	01d00734 	movhi	r7,16412
    46a0:	1009883a 	mov	r4,r2
    46a4:	180b883a 	mov	r5,r3
    46a8:	000b2840 	call	b284 <__adddf3>
    46ac:	047f3034 	movhi	r17,64704
    46b0:	1021883a 	mov	r16,r2
    46b4:	1c63883a 	add	r17,r3,r17
    46b8:	d9000f17 	ldw	r4,60(sp)
    46bc:	d9401017 	ldw	r5,64(sp)
    46c0:	000d883a 	mov	r6,zero
    46c4:	01d00534 	movhi	r7,16404
    46c8:	000cfc40 	call	cfc4 <__subdf3>
    46cc:	800d883a 	mov	r6,r16
    46d0:	880f883a 	mov	r7,r17
    46d4:	1009883a 	mov	r4,r2
    46d8:	180b883a 	mov	r5,r3
    46dc:	102b883a 	mov	r21,r2
    46e0:	1829883a 	mov	r20,r3
    46e4:	000c5880 	call	c588 <__gedf2>
    46e8:	00806c16 	blt	zero,r2,489c <_dtoa_r+0x1304>
    46ec:	89e0003c 	xorhi	r7,r17,32768
    46f0:	800d883a 	mov	r6,r16
    46f4:	a809883a 	mov	r4,r21
    46f8:	a00b883a 	mov	r5,r20
    46fc:	000c6640 	call	c664 <__ledf2>
    4700:	103d7e0e 	bge	r2,zero,3cfc <__alt_data_end+0xfffd3cfc>
    4704:	002b883a 	mov	r21,zero
    4708:	0023883a 	mov	r17,zero
    470c:	003efb06 	br	42fc <__alt_data_end+0xfffd42fc>
    4710:	d8800717 	ldw	r2,28(sp)
    4714:	003bd006 	br	3658 <__alt_data_end+0xfffd3658>
    4718:	d9000a17 	ldw	r4,40(sp)
    471c:	d9800d17 	ldw	r6,52(sp)
    4720:	dd400a15 	stw	r21,40(sp)
    4724:	a905c83a 	sub	r2,r21,r4
    4728:	308d883a 	add	r6,r6,r2
    472c:	d9800d15 	stw	r6,52(sp)
    4730:	002b883a 	mov	r21,zero
    4734:	003e0606 	br	3f50 <__alt_data_end+0xfffd3f50>
    4738:	9023883a 	mov	r17,r18
    473c:	9829883a 	mov	r20,r19
    4740:	04000084 	movi	r16,2
    4744:	003c9206 	br	3990 <__alt_data_end+0xfffd3990>
    4748:	04000044 	movi	r16,1
    474c:	dc000c15 	stw	r16,48(sp)
    4750:	dc000615 	stw	r16,24(sp)
    4754:	dc002215 	stw	r16,136(sp)
    4758:	e0001115 	stw	zero,68(fp)
    475c:	000b883a 	mov	r5,zero
    4760:	003c6906 	br	3908 <__alt_data_end+0xfffd3908>
    4764:	3021883a 	mov	r16,r6
    4768:	003ffb06 	br	4758 <__alt_data_end+0xfffd4758>
    476c:	1000021e 	bne	r2,zero,4778 <_dtoa_r+0x11e0>
    4770:	4200004c 	andi	r8,r8,1
    4774:	403e7d1e 	bne	r8,zero,416c <__alt_data_end+0xfffd416c>
    4778:	01000c04 	movi	r4,48
    477c:	00000106 	br	4784 <_dtoa_r+0x11ec>
    4780:	102f883a 	mov	r23,r2
    4784:	b8bfffc4 	addi	r2,r23,-1
    4788:	10c00007 	ldb	r3,0(r2)
    478c:	193ffc26 	beq	r3,r4,4780 <__alt_data_end+0xfffd4780>
    4790:	003e8706 	br	41b0 <__alt_data_end+0xfffd41b0>
    4794:	d8800517 	ldw	r2,20(sp)
    4798:	00a3c83a 	sub	r17,zero,r2
    479c:	8800a426 	beq	r17,zero,4a30 <_dtoa_r+0x1498>
    47a0:	888003cc 	andi	r2,r17,15
    47a4:	100490fa 	slli	r2,r2,3
    47a8:	00c000b4 	movhi	r3,2
    47ac:	18e14d04 	addi	r3,r3,-31436
    47b0:	1885883a 	add	r2,r3,r2
    47b4:	11800017 	ldw	r6,0(r2)
    47b8:	11c00117 	ldw	r7,4(r2)
    47bc:	9009883a 	mov	r4,r18
    47c0:	980b883a 	mov	r5,r19
    47c4:	8823d13a 	srai	r17,r17,4
    47c8:	000c7580 	call	c758 <__muldf3>
    47cc:	d8800f15 	stw	r2,60(sp)
    47d0:	d8c01015 	stw	r3,64(sp)
    47d4:	8800e826 	beq	r17,zero,4b78 <_dtoa_r+0x15e0>
    47d8:	050000b4 	movhi	r20,2
    47dc:	a5214304 	addi	r20,r20,-31476
    47e0:	04000084 	movi	r16,2
    47e4:	8980004c 	andi	r6,r17,1
    47e8:	1009883a 	mov	r4,r2
    47ec:	8823d07a 	srai	r17,r17,1
    47f0:	180b883a 	mov	r5,r3
    47f4:	30000426 	beq	r6,zero,4808 <_dtoa_r+0x1270>
    47f8:	a1800017 	ldw	r6,0(r20)
    47fc:	a1c00117 	ldw	r7,4(r20)
    4800:	84000044 	addi	r16,r16,1
    4804:	000c7580 	call	c758 <__muldf3>
    4808:	a5000204 	addi	r20,r20,8
    480c:	883ff51e 	bne	r17,zero,47e4 <__alt_data_end+0xfffd47e4>
    4810:	d8800f15 	stw	r2,60(sp)
    4814:	d8c01015 	stw	r3,64(sp)
    4818:	003c7606 	br	39f4 <__alt_data_end+0xfffd39f4>
    481c:	00c00c04 	movi	r3,48
    4820:	10c00005 	stb	r3,0(r2)
    4824:	d8c00517 	ldw	r3,20(sp)
    4828:	bd3fffc3 	ldbu	r20,-1(r23)
    482c:	18c00044 	addi	r3,r3,1
    4830:	d8c00515 	stw	r3,20(sp)
    4834:	003db906 	br	3f1c <__alt_data_end+0xfffd3f1c>
    4838:	89400117 	ldw	r5,4(r17)
    483c:	e009883a 	mov	r4,fp
    4840:	0006c500 	call	6c50 <_Balloc>
    4844:	89800417 	ldw	r6,16(r17)
    4848:	89400304 	addi	r5,r17,12
    484c:	11000304 	addi	r4,r2,12
    4850:	31800084 	addi	r6,r6,2
    4854:	318d883a 	add	r6,r6,r6
    4858:	318d883a 	add	r6,r6,r6
    485c:	1027883a 	mov	r19,r2
    4860:	00068840 	call	6884 <memcpy>
    4864:	01800044 	movi	r6,1
    4868:	980b883a 	mov	r5,r19
    486c:	e009883a 	mov	r4,fp
    4870:	000748c0 	call	748c <__lshift>
    4874:	1029883a 	mov	r20,r2
    4878:	003ecc06 	br	43ac <__alt_data_end+0xfffd43ac>
    487c:	00800e44 	movi	r2,57
    4880:	90809026 	beq	r18,r2,4ac4 <_dtoa_r+0x152c>
    4884:	92000044 	addi	r8,r18,1
    4888:	003f1f06 	br	4508 <__alt_data_end+0xfffd4508>
    488c:	9011883a 	mov	r8,r18
    4890:	8825883a 	mov	r18,r17
    4894:	a023883a 	mov	r17,r20
    4898:	003e2906 	br	4140 <__alt_data_end+0xfffd4140>
    489c:	002b883a 	mov	r21,zero
    48a0:	0023883a 	mov	r17,zero
    48a4:	003f5406 	br	45f8 <__alt_data_end+0xfffd45f8>
    48a8:	61bfffc4 	addi	r6,r12,-1
    48ac:	300490fa 	slli	r2,r6,3
    48b0:	00c000b4 	movhi	r3,2
    48b4:	18e14d04 	addi	r3,r3,-31436
    48b8:	1885883a 	add	r2,r3,r2
    48bc:	11000017 	ldw	r4,0(r2)
    48c0:	11400117 	ldw	r5,4(r2)
    48c4:	d8800717 	ldw	r2,28(sp)
    48c8:	880f883a 	mov	r7,r17
    48cc:	d9801215 	stw	r6,72(sp)
    48d0:	800d883a 	mov	r6,r16
    48d4:	db001615 	stw	r12,88(sp)
    48d8:	15c00044 	addi	r23,r2,1
    48dc:	000c7580 	call	c758 <__muldf3>
    48e0:	d9401017 	ldw	r5,64(sp)
    48e4:	d9000f17 	ldw	r4,60(sp)
    48e8:	d8c01515 	stw	r3,84(sp)
    48ec:	d8801415 	stw	r2,80(sp)
    48f0:	000d8c00 	call	d8c0 <__fixdfsi>
    48f4:	1009883a 	mov	r4,r2
    48f8:	1021883a 	mov	r16,r2
    48fc:	000d9400 	call	d940 <__floatsidf>
    4900:	d9000f17 	ldw	r4,60(sp)
    4904:	d9401017 	ldw	r5,64(sp)
    4908:	100d883a 	mov	r6,r2
    490c:	180f883a 	mov	r7,r3
    4910:	000cfc40 	call	cfc4 <__subdf3>
    4914:	1829883a 	mov	r20,r3
    4918:	d8c00717 	ldw	r3,28(sp)
    491c:	84000c04 	addi	r16,r16,48
    4920:	1023883a 	mov	r17,r2
    4924:	1c000005 	stb	r16,0(r3)
    4928:	db001617 	ldw	r12,88(sp)
    492c:	00800044 	movi	r2,1
    4930:	60802226 	beq	r12,r2,49bc <_dtoa_r+0x1424>
    4934:	d9c00717 	ldw	r7,28(sp)
    4938:	8805883a 	mov	r2,r17
    493c:	b82b883a 	mov	r21,r23
    4940:	3b19883a 	add	r12,r7,r12
    4944:	6023883a 	mov	r17,r12
    4948:	a007883a 	mov	r3,r20
    494c:	dc800f15 	stw	r18,60(sp)
    4950:	000d883a 	mov	r6,zero
    4954:	01d00934 	movhi	r7,16420
    4958:	1009883a 	mov	r4,r2
    495c:	180b883a 	mov	r5,r3
    4960:	000c7580 	call	c758 <__muldf3>
    4964:	180b883a 	mov	r5,r3
    4968:	1009883a 	mov	r4,r2
    496c:	1829883a 	mov	r20,r3
    4970:	1025883a 	mov	r18,r2
    4974:	000d8c00 	call	d8c0 <__fixdfsi>
    4978:	1009883a 	mov	r4,r2
    497c:	1021883a 	mov	r16,r2
    4980:	000d9400 	call	d940 <__floatsidf>
    4984:	100d883a 	mov	r6,r2
    4988:	180f883a 	mov	r7,r3
    498c:	9009883a 	mov	r4,r18
    4990:	a00b883a 	mov	r5,r20
    4994:	84000c04 	addi	r16,r16,48
    4998:	000cfc40 	call	cfc4 <__subdf3>
    499c:	ad400044 	addi	r21,r21,1
    49a0:	ac3fffc5 	stb	r16,-1(r21)
    49a4:	ac7fea1e 	bne	r21,r17,4950 <__alt_data_end+0xfffd4950>
    49a8:	1023883a 	mov	r17,r2
    49ac:	d8801217 	ldw	r2,72(sp)
    49b0:	dc800f17 	ldw	r18,60(sp)
    49b4:	1829883a 	mov	r20,r3
    49b8:	b8af883a 	add	r23,r23,r2
    49bc:	d9001417 	ldw	r4,80(sp)
    49c0:	d9401517 	ldw	r5,84(sp)
    49c4:	000d883a 	mov	r6,zero
    49c8:	01cff834 	movhi	r7,16352
    49cc:	000b2840 	call	b284 <__adddf3>
    49d0:	880d883a 	mov	r6,r17
    49d4:	a00f883a 	mov	r7,r20
    49d8:	1009883a 	mov	r4,r2
    49dc:	180b883a 	mov	r5,r3
    49e0:	000c6640 	call	c664 <__ledf2>
    49e4:	10003e0e 	bge	r2,zero,4ae0 <_dtoa_r+0x1548>
    49e8:	d9001317 	ldw	r4,76(sp)
    49ec:	bd3fffc3 	ldbu	r20,-1(r23)
    49f0:	d9000515 	stw	r4,20(sp)
    49f4:	003d3b06 	br	3ee4 <__alt_data_end+0xfffd3ee4>
    49f8:	0027883a 	mov	r19,zero
    49fc:	003f1b06 	br	466c <__alt_data_end+0xfffd466c>
    4a00:	d8800817 	ldw	r2,32(sp)
    4a04:	11e9c83a 	sub	r20,r2,r7
    4a08:	0005883a 	mov	r2,zero
    4a0c:	003d5406 	br	3f60 <__alt_data_end+0xfffd3f60>
    4a10:	00800044 	movi	r2,1
    4a14:	003dc706 	br	4134 <__alt_data_end+0xfffd4134>
    4a18:	d8c00217 	ldw	r3,8(sp)
    4a1c:	00800d84 	movi	r2,54
    4a20:	dd400a17 	ldw	r21,40(sp)
    4a24:	10c5c83a 	sub	r2,r2,r3
    4a28:	dd000817 	ldw	r20,32(sp)
    4a2c:	003d4c06 	br	3f60 <__alt_data_end+0xfffd3f60>
    4a30:	dc800f15 	stw	r18,60(sp)
    4a34:	dcc01015 	stw	r19,64(sp)
    4a38:	04000084 	movi	r16,2
    4a3c:	003bed06 	br	39f4 <__alt_data_end+0xfffd39f4>
    4a40:	d9000617 	ldw	r4,24(sp)
    4a44:	203f0d26 	beq	r4,zero,467c <__alt_data_end+0xfffd467c>
    4a48:	d9800c17 	ldw	r6,48(sp)
    4a4c:	01bcab0e 	bge	zero,r6,3cfc <__alt_data_end+0xfffd3cfc>
    4a50:	d9401017 	ldw	r5,64(sp)
    4a54:	d9000f17 	ldw	r4,60(sp)
    4a58:	000d883a 	mov	r6,zero
    4a5c:	01d00934 	movhi	r7,16420
    4a60:	000c7580 	call	c758 <__muldf3>
    4a64:	81000044 	addi	r4,r16,1
    4a68:	d8800f15 	stw	r2,60(sp)
    4a6c:	d8c01015 	stw	r3,64(sp)
    4a70:	000d9400 	call	d940 <__floatsidf>
    4a74:	d9800f17 	ldw	r6,60(sp)
    4a78:	d9c01017 	ldw	r7,64(sp)
    4a7c:	1009883a 	mov	r4,r2
    4a80:	180b883a 	mov	r5,r3
    4a84:	000c7580 	call	c758 <__muldf3>
    4a88:	01d00734 	movhi	r7,16412
    4a8c:	000d883a 	mov	r6,zero
    4a90:	1009883a 	mov	r4,r2
    4a94:	180b883a 	mov	r5,r3
    4a98:	000b2840 	call	b284 <__adddf3>
    4a9c:	d9c00517 	ldw	r7,20(sp)
    4aa0:	047f3034 	movhi	r17,64704
    4aa4:	1021883a 	mov	r16,r2
    4aa8:	39ffffc4 	addi	r7,r7,-1
    4aac:	d9c01315 	stw	r7,76(sp)
    4ab0:	1c63883a 	add	r17,r3,r17
    4ab4:	db000c17 	ldw	r12,48(sp)
    4ab8:	003bea06 	br	3a64 <__alt_data_end+0xfffd3a64>
    4abc:	dc000915 	stw	r16,36(sp)
    4ac0:	003e0e06 	br	42fc <__alt_data_end+0xfffd42fc>
    4ac4:	01000e44 	movi	r4,57
    4ac8:	8825883a 	mov	r18,r17
    4acc:	9dc00044 	addi	r23,r19,1
    4ad0:	99000005 	stb	r4,0(r19)
    4ad4:	a023883a 	mov	r17,r20
    4ad8:	dc000915 	stw	r16,36(sp)
    4adc:	003da406 	br	4170 <__alt_data_end+0xfffd4170>
    4ae0:	d9801417 	ldw	r6,80(sp)
    4ae4:	d9c01517 	ldw	r7,84(sp)
    4ae8:	0009883a 	mov	r4,zero
    4aec:	014ff834 	movhi	r5,16352
    4af0:	000cfc40 	call	cfc4 <__subdf3>
    4af4:	880d883a 	mov	r6,r17
    4af8:	a00f883a 	mov	r7,r20
    4afc:	1009883a 	mov	r4,r2
    4b00:	180b883a 	mov	r5,r3
    4b04:	000c5880 	call	c588 <__gedf2>
    4b08:	00bc7c0e 	bge	zero,r2,3cfc <__alt_data_end+0xfffd3cfc>
    4b0c:	01000c04 	movi	r4,48
    4b10:	00000106 	br	4b18 <_dtoa_r+0x1580>
    4b14:	102f883a 	mov	r23,r2
    4b18:	b8bfffc4 	addi	r2,r23,-1
    4b1c:	10c00007 	ldb	r3,0(r2)
    4b20:	193ffc26 	beq	r3,r4,4b14 <__alt_data_end+0xfffd4b14>
    4b24:	d9801317 	ldw	r6,76(sp)
    4b28:	d9800515 	stw	r6,20(sp)
    4b2c:	003c4406 	br	3c40 <__alt_data_end+0xfffd3c40>
    4b30:	d9801317 	ldw	r6,76(sp)
    4b34:	d9800515 	stw	r6,20(sp)
    4b38:	003cea06 	br	3ee4 <__alt_data_end+0xfffd3ee4>
    4b3c:	dd800f17 	ldw	r22,60(sp)
    4b40:	dcc01017 	ldw	r19,64(sp)
    4b44:	dc801217 	ldw	r18,72(sp)
    4b48:	003c6c06 	br	3cfc <__alt_data_end+0xfffd3cfc>
    4b4c:	903e031e 	bne	r18,zero,435c <__alt_data_end+0xfffd435c>
    4b50:	003ebb06 	br	4640 <__alt_data_end+0xfffd4640>
    4b54:	103e6c1e 	bne	r2,zero,4508 <__alt_data_end+0xfffd4508>
    4b58:	4080004c 	andi	r2,r8,1
    4b5c:	103e6a26 	beq	r2,zero,4508 <__alt_data_end+0xfffd4508>
    4b60:	003e6606 	br	44fc <__alt_data_end+0xfffd44fc>
    4b64:	d8c00317 	ldw	r3,12(sp)
    4b68:	00800084 	movi	r2,2
    4b6c:	10c02916 	blt	r2,r3,4c14 <_dtoa_r+0x167c>
    4b70:	d9000c17 	ldw	r4,48(sp)
    4b74:	003e8806 	br	4598 <__alt_data_end+0xfffd4598>
    4b78:	04000084 	movi	r16,2
    4b7c:	003b9d06 	br	39f4 <__alt_data_end+0xfffd39f4>
    4b80:	d9001317 	ldw	r4,76(sp)
    4b84:	d9000515 	stw	r4,20(sp)
    4b88:	003cd606 	br	3ee4 <__alt_data_end+0xfffd3ee4>
    4b8c:	d8801317 	ldw	r2,76(sp)
    4b90:	d8800515 	stw	r2,20(sp)
    4b94:	003c2a06 	br	3c40 <__alt_data_end+0xfffd3c40>
    4b98:	d9800317 	ldw	r6,12(sp)
    4b9c:	00800084 	movi	r2,2
    4ba0:	11801516 	blt	r2,r6,4bf8 <_dtoa_r+0x1660>
    4ba4:	d9c00c17 	ldw	r7,48(sp)
    4ba8:	d9c00615 	stw	r7,24(sp)
    4bac:	003df706 	br	438c <__alt_data_end+0xfffd438c>
    4bb0:	193d3926 	beq	r3,r4,4098 <__alt_data_end+0xfffd4098>
    4bb4:	00c00f04 	movi	r3,60
    4bb8:	1885c83a 	sub	r2,r3,r2
    4bbc:	003ddf06 	br	433c <__alt_data_end+0xfffd433c>
    4bc0:	e009883a 	mov	r4,fp
    4bc4:	e0001115 	stw	zero,68(fp)
    4bc8:	000b883a 	mov	r5,zero
    4bcc:	0006c500 	call	6c50 <_Balloc>
    4bd0:	d8800715 	stw	r2,28(sp)
    4bd4:	d8c00717 	ldw	r3,28(sp)
    4bd8:	00bfffc4 	movi	r2,-1
    4bdc:	01000044 	movi	r4,1
    4be0:	d8800c15 	stw	r2,48(sp)
    4be4:	e0c01015 	stw	r3,64(fp)
    4be8:	d9000b15 	stw	r4,44(sp)
    4bec:	d8800615 	stw	r2,24(sp)
    4bf0:	d8002215 	stw	zero,136(sp)
    4bf4:	003c4106 	br	3cfc <__alt_data_end+0xfffd3cfc>
    4bf8:	d8c00c17 	ldw	r3,48(sp)
    4bfc:	d8c00615 	stw	r3,24(sp)
    4c00:	003e7006 	br	45c4 <__alt_data_end+0xfffd45c4>
    4c04:	04400044 	movi	r17,1
    4c08:	003b2006 	br	388c <__alt_data_end+0xfffd388c>
    4c0c:	000b883a 	mov	r5,zero
    4c10:	003b3d06 	br	3908 <__alt_data_end+0xfffd3908>
    4c14:	d8800c17 	ldw	r2,48(sp)
    4c18:	d8800615 	stw	r2,24(sp)
    4c1c:	003e6906 	br	45c4 <__alt_data_end+0xfffd45c4>

00004c20 <__sflush_r>:
    4c20:	2880030b 	ldhu	r2,12(r5)
    4c24:	defffb04 	addi	sp,sp,-20
    4c28:	dcc00315 	stw	r19,12(sp)
    4c2c:	dc400115 	stw	r17,4(sp)
    4c30:	dfc00415 	stw	ra,16(sp)
    4c34:	dc800215 	stw	r18,8(sp)
    4c38:	dc000015 	stw	r16,0(sp)
    4c3c:	10c0020c 	andi	r3,r2,8
    4c40:	2823883a 	mov	r17,r5
    4c44:	2027883a 	mov	r19,r4
    4c48:	1800311e 	bne	r3,zero,4d10 <__sflush_r+0xf0>
    4c4c:	28c00117 	ldw	r3,4(r5)
    4c50:	10820014 	ori	r2,r2,2048
    4c54:	2880030d 	sth	r2,12(r5)
    4c58:	00c04b0e 	bge	zero,r3,4d88 <__sflush_r+0x168>
    4c5c:	8a000a17 	ldw	r8,40(r17)
    4c60:	40002326 	beq	r8,zero,4cf0 <__sflush_r+0xd0>
    4c64:	9c000017 	ldw	r16,0(r19)
    4c68:	10c4000c 	andi	r3,r2,4096
    4c6c:	98000015 	stw	zero,0(r19)
    4c70:	18004826 	beq	r3,zero,4d94 <__sflush_r+0x174>
    4c74:	89801417 	ldw	r6,80(r17)
    4c78:	10c0010c 	andi	r3,r2,4
    4c7c:	18000626 	beq	r3,zero,4c98 <__sflush_r+0x78>
    4c80:	88c00117 	ldw	r3,4(r17)
    4c84:	88800c17 	ldw	r2,48(r17)
    4c88:	30cdc83a 	sub	r6,r6,r3
    4c8c:	10000226 	beq	r2,zero,4c98 <__sflush_r+0x78>
    4c90:	88800f17 	ldw	r2,60(r17)
    4c94:	308dc83a 	sub	r6,r6,r2
    4c98:	89400717 	ldw	r5,28(r17)
    4c9c:	000f883a 	mov	r7,zero
    4ca0:	9809883a 	mov	r4,r19
    4ca4:	403ee83a 	callr	r8
    4ca8:	00ffffc4 	movi	r3,-1
    4cac:	10c04426 	beq	r2,r3,4dc0 <__sflush_r+0x1a0>
    4cb0:	88c0030b 	ldhu	r3,12(r17)
    4cb4:	89000417 	ldw	r4,16(r17)
    4cb8:	88000115 	stw	zero,4(r17)
    4cbc:	197dffcc 	andi	r5,r3,63487
    4cc0:	8940030d 	sth	r5,12(r17)
    4cc4:	89000015 	stw	r4,0(r17)
    4cc8:	18c4000c 	andi	r3,r3,4096
    4ccc:	18002c1e 	bne	r3,zero,4d80 <__sflush_r+0x160>
    4cd0:	89400c17 	ldw	r5,48(r17)
    4cd4:	9c000015 	stw	r16,0(r19)
    4cd8:	28000526 	beq	r5,zero,4cf0 <__sflush_r+0xd0>
    4cdc:	88801004 	addi	r2,r17,64
    4ce0:	28800226 	beq	r5,r2,4cec <__sflush_r+0xcc>
    4ce4:	9809883a 	mov	r4,r19
    4ce8:	000539c0 	call	539c <_free_r>
    4cec:	88000c15 	stw	zero,48(r17)
    4cf0:	0005883a 	mov	r2,zero
    4cf4:	dfc00417 	ldw	ra,16(sp)
    4cf8:	dcc00317 	ldw	r19,12(sp)
    4cfc:	dc800217 	ldw	r18,8(sp)
    4d00:	dc400117 	ldw	r17,4(sp)
    4d04:	dc000017 	ldw	r16,0(sp)
    4d08:	dec00504 	addi	sp,sp,20
    4d0c:	f800283a 	ret
    4d10:	2c800417 	ldw	r18,16(r5)
    4d14:	903ff626 	beq	r18,zero,4cf0 <__alt_data_end+0xfffd4cf0>
    4d18:	2c000017 	ldw	r16,0(r5)
    4d1c:	108000cc 	andi	r2,r2,3
    4d20:	2c800015 	stw	r18,0(r5)
    4d24:	84a1c83a 	sub	r16,r16,r18
    4d28:	1000131e 	bne	r2,zero,4d78 <__sflush_r+0x158>
    4d2c:	28800517 	ldw	r2,20(r5)
    4d30:	88800215 	stw	r2,8(r17)
    4d34:	04000316 	blt	zero,r16,4d44 <__sflush_r+0x124>
    4d38:	003fed06 	br	4cf0 <__alt_data_end+0xfffd4cf0>
    4d3c:	90a5883a 	add	r18,r18,r2
    4d40:	043feb0e 	bge	zero,r16,4cf0 <__alt_data_end+0xfffd4cf0>
    4d44:	88800917 	ldw	r2,36(r17)
    4d48:	89400717 	ldw	r5,28(r17)
    4d4c:	800f883a 	mov	r7,r16
    4d50:	900d883a 	mov	r6,r18
    4d54:	9809883a 	mov	r4,r19
    4d58:	103ee83a 	callr	r2
    4d5c:	80a1c83a 	sub	r16,r16,r2
    4d60:	00bff616 	blt	zero,r2,4d3c <__alt_data_end+0xfffd4d3c>
    4d64:	88c0030b 	ldhu	r3,12(r17)
    4d68:	00bfffc4 	movi	r2,-1
    4d6c:	18c01014 	ori	r3,r3,64
    4d70:	88c0030d 	sth	r3,12(r17)
    4d74:	003fdf06 	br	4cf4 <__alt_data_end+0xfffd4cf4>
    4d78:	0005883a 	mov	r2,zero
    4d7c:	003fec06 	br	4d30 <__alt_data_end+0xfffd4d30>
    4d80:	88801415 	stw	r2,80(r17)
    4d84:	003fd206 	br	4cd0 <__alt_data_end+0xfffd4cd0>
    4d88:	28c00f17 	ldw	r3,60(r5)
    4d8c:	00ffb316 	blt	zero,r3,4c5c <__alt_data_end+0xfffd4c5c>
    4d90:	003fd706 	br	4cf0 <__alt_data_end+0xfffd4cf0>
    4d94:	89400717 	ldw	r5,28(r17)
    4d98:	000d883a 	mov	r6,zero
    4d9c:	01c00044 	movi	r7,1
    4da0:	9809883a 	mov	r4,r19
    4da4:	403ee83a 	callr	r8
    4da8:	100d883a 	mov	r6,r2
    4dac:	00bfffc4 	movi	r2,-1
    4db0:	30801426 	beq	r6,r2,4e04 <__sflush_r+0x1e4>
    4db4:	8880030b 	ldhu	r2,12(r17)
    4db8:	8a000a17 	ldw	r8,40(r17)
    4dbc:	003fae06 	br	4c78 <__alt_data_end+0xfffd4c78>
    4dc0:	98c00017 	ldw	r3,0(r19)
    4dc4:	183fba26 	beq	r3,zero,4cb0 <__alt_data_end+0xfffd4cb0>
    4dc8:	01000744 	movi	r4,29
    4dcc:	19000626 	beq	r3,r4,4de8 <__sflush_r+0x1c8>
    4dd0:	01000584 	movi	r4,22
    4dd4:	19000426 	beq	r3,r4,4de8 <__sflush_r+0x1c8>
    4dd8:	88c0030b 	ldhu	r3,12(r17)
    4ddc:	18c01014 	ori	r3,r3,64
    4de0:	88c0030d 	sth	r3,12(r17)
    4de4:	003fc306 	br	4cf4 <__alt_data_end+0xfffd4cf4>
    4de8:	8880030b 	ldhu	r2,12(r17)
    4dec:	88c00417 	ldw	r3,16(r17)
    4df0:	88000115 	stw	zero,4(r17)
    4df4:	10bdffcc 	andi	r2,r2,63487
    4df8:	8880030d 	sth	r2,12(r17)
    4dfc:	88c00015 	stw	r3,0(r17)
    4e00:	003fb306 	br	4cd0 <__alt_data_end+0xfffd4cd0>
    4e04:	98800017 	ldw	r2,0(r19)
    4e08:	103fea26 	beq	r2,zero,4db4 <__alt_data_end+0xfffd4db4>
    4e0c:	00c00744 	movi	r3,29
    4e10:	10c00226 	beq	r2,r3,4e1c <__sflush_r+0x1fc>
    4e14:	00c00584 	movi	r3,22
    4e18:	10c0031e 	bne	r2,r3,4e28 <__sflush_r+0x208>
    4e1c:	9c000015 	stw	r16,0(r19)
    4e20:	0005883a 	mov	r2,zero
    4e24:	003fb306 	br	4cf4 <__alt_data_end+0xfffd4cf4>
    4e28:	88c0030b 	ldhu	r3,12(r17)
    4e2c:	3005883a 	mov	r2,r6
    4e30:	18c01014 	ori	r3,r3,64
    4e34:	88c0030d 	sth	r3,12(r17)
    4e38:	003fae06 	br	4cf4 <__alt_data_end+0xfffd4cf4>

00004e3c <_fflush_r>:
    4e3c:	defffd04 	addi	sp,sp,-12
    4e40:	dc000115 	stw	r16,4(sp)
    4e44:	dfc00215 	stw	ra,8(sp)
    4e48:	2021883a 	mov	r16,r4
    4e4c:	20000226 	beq	r4,zero,4e58 <_fflush_r+0x1c>
    4e50:	20800e17 	ldw	r2,56(r4)
    4e54:	10000c26 	beq	r2,zero,4e88 <_fflush_r+0x4c>
    4e58:	2880030f 	ldh	r2,12(r5)
    4e5c:	1000051e 	bne	r2,zero,4e74 <_fflush_r+0x38>
    4e60:	0005883a 	mov	r2,zero
    4e64:	dfc00217 	ldw	ra,8(sp)
    4e68:	dc000117 	ldw	r16,4(sp)
    4e6c:	dec00304 	addi	sp,sp,12
    4e70:	f800283a 	ret
    4e74:	8009883a 	mov	r4,r16
    4e78:	dfc00217 	ldw	ra,8(sp)
    4e7c:	dc000117 	ldw	r16,4(sp)
    4e80:	dec00304 	addi	sp,sp,12
    4e84:	0004c201 	jmpi	4c20 <__sflush_r>
    4e88:	d9400015 	stw	r5,0(sp)
    4e8c:	00052280 	call	5228 <__sinit>
    4e90:	d9400017 	ldw	r5,0(sp)
    4e94:	003ff006 	br	4e58 <__alt_data_end+0xfffd4e58>

00004e98 <fflush>:
    4e98:	20000526 	beq	r4,zero,4eb0 <fflush+0x18>
    4e9c:	008000b4 	movhi	r2,2
    4ea0:	10a8cb04 	addi	r2,r2,-23764
    4ea4:	200b883a 	mov	r5,r4
    4ea8:	11000017 	ldw	r4,0(r2)
    4eac:	0004e3c1 	jmpi	4e3c <_fflush_r>
    4eb0:	008000b4 	movhi	r2,2
    4eb4:	10a8ca04 	addi	r2,r2,-23768
    4eb8:	11000017 	ldw	r4,0(r2)
    4ebc:	01400034 	movhi	r5,0
    4ec0:	29538f04 	addi	r5,r5,20028
    4ec4:	0005c381 	jmpi	5c38 <_fwalk_reent>

00004ec8 <__fp_unlock>:
    4ec8:	0005883a 	mov	r2,zero
    4ecc:	f800283a 	ret

00004ed0 <_cleanup_r>:
    4ed0:	01400074 	movhi	r5,1
    4ed4:	29677504 	addi	r5,r5,-25132
    4ed8:	0005c381 	jmpi	5c38 <_fwalk_reent>

00004edc <__sinit.part.1>:
    4edc:	defff704 	addi	sp,sp,-36
    4ee0:	00c00034 	movhi	r3,0
    4ee4:	dfc00815 	stw	ra,32(sp)
    4ee8:	ddc00715 	stw	r23,28(sp)
    4eec:	dd800615 	stw	r22,24(sp)
    4ef0:	dd400515 	stw	r21,20(sp)
    4ef4:	dd000415 	stw	r20,16(sp)
    4ef8:	dcc00315 	stw	r19,12(sp)
    4efc:	dc800215 	stw	r18,8(sp)
    4f00:	dc400115 	stw	r17,4(sp)
    4f04:	dc000015 	stw	r16,0(sp)
    4f08:	18d3b404 	addi	r3,r3,20176
    4f0c:	24000117 	ldw	r16,4(r4)
    4f10:	20c00f15 	stw	r3,60(r4)
    4f14:	2080bb04 	addi	r2,r4,748
    4f18:	00c000c4 	movi	r3,3
    4f1c:	20c0b915 	stw	r3,740(r4)
    4f20:	2080ba15 	stw	r2,744(r4)
    4f24:	2000b815 	stw	zero,736(r4)
    4f28:	05c00204 	movi	r23,8
    4f2c:	00800104 	movi	r2,4
    4f30:	2025883a 	mov	r18,r4
    4f34:	b80d883a 	mov	r6,r23
    4f38:	81001704 	addi	r4,r16,92
    4f3c:	000b883a 	mov	r5,zero
    4f40:	80000015 	stw	zero,0(r16)
    4f44:	80000115 	stw	zero,4(r16)
    4f48:	80000215 	stw	zero,8(r16)
    4f4c:	8080030d 	sth	r2,12(r16)
    4f50:	80001915 	stw	zero,100(r16)
    4f54:	8000038d 	sth	zero,14(r16)
    4f58:	80000415 	stw	zero,16(r16)
    4f5c:	80000515 	stw	zero,20(r16)
    4f60:	80000615 	stw	zero,24(r16)
    4f64:	0006b280 	call	6b28 <memset>
    4f68:	05800074 	movhi	r22,1
    4f6c:	94400217 	ldw	r17,8(r18)
    4f70:	05400074 	movhi	r21,1
    4f74:	05000074 	movhi	r20,1
    4f78:	04c00074 	movhi	r19,1
    4f7c:	b5a0cd04 	addi	r22,r22,-31948
    4f80:	ad60e404 	addi	r21,r21,-31856
    4f84:	a5210304 	addi	r20,r20,-31732
    4f88:	9ce11a04 	addi	r19,r19,-31640
    4f8c:	85800815 	stw	r22,32(r16)
    4f90:	85400915 	stw	r21,36(r16)
    4f94:	85000a15 	stw	r20,40(r16)
    4f98:	84c00b15 	stw	r19,44(r16)
    4f9c:	84000715 	stw	r16,28(r16)
    4fa0:	00800284 	movi	r2,10
    4fa4:	8880030d 	sth	r2,12(r17)
    4fa8:	00800044 	movi	r2,1
    4fac:	b80d883a 	mov	r6,r23
    4fb0:	89001704 	addi	r4,r17,92
    4fb4:	000b883a 	mov	r5,zero
    4fb8:	88000015 	stw	zero,0(r17)
    4fbc:	88000115 	stw	zero,4(r17)
    4fc0:	88000215 	stw	zero,8(r17)
    4fc4:	88001915 	stw	zero,100(r17)
    4fc8:	8880038d 	sth	r2,14(r17)
    4fcc:	88000415 	stw	zero,16(r17)
    4fd0:	88000515 	stw	zero,20(r17)
    4fd4:	88000615 	stw	zero,24(r17)
    4fd8:	0006b280 	call	6b28 <memset>
    4fdc:	94000317 	ldw	r16,12(r18)
    4fe0:	00800484 	movi	r2,18
    4fe4:	8c400715 	stw	r17,28(r17)
    4fe8:	8d800815 	stw	r22,32(r17)
    4fec:	8d400915 	stw	r21,36(r17)
    4ff0:	8d000a15 	stw	r20,40(r17)
    4ff4:	8cc00b15 	stw	r19,44(r17)
    4ff8:	8080030d 	sth	r2,12(r16)
    4ffc:	00800084 	movi	r2,2
    5000:	80000015 	stw	zero,0(r16)
    5004:	80000115 	stw	zero,4(r16)
    5008:	80000215 	stw	zero,8(r16)
    500c:	80001915 	stw	zero,100(r16)
    5010:	8080038d 	sth	r2,14(r16)
    5014:	80000415 	stw	zero,16(r16)
    5018:	80000515 	stw	zero,20(r16)
    501c:	80000615 	stw	zero,24(r16)
    5020:	b80d883a 	mov	r6,r23
    5024:	000b883a 	mov	r5,zero
    5028:	81001704 	addi	r4,r16,92
    502c:	0006b280 	call	6b28 <memset>
    5030:	00800044 	movi	r2,1
    5034:	84000715 	stw	r16,28(r16)
    5038:	85800815 	stw	r22,32(r16)
    503c:	85400915 	stw	r21,36(r16)
    5040:	85000a15 	stw	r20,40(r16)
    5044:	84c00b15 	stw	r19,44(r16)
    5048:	90800e15 	stw	r2,56(r18)
    504c:	dfc00817 	ldw	ra,32(sp)
    5050:	ddc00717 	ldw	r23,28(sp)
    5054:	dd800617 	ldw	r22,24(sp)
    5058:	dd400517 	ldw	r21,20(sp)
    505c:	dd000417 	ldw	r20,16(sp)
    5060:	dcc00317 	ldw	r19,12(sp)
    5064:	dc800217 	ldw	r18,8(sp)
    5068:	dc400117 	ldw	r17,4(sp)
    506c:	dc000017 	ldw	r16,0(sp)
    5070:	dec00904 	addi	sp,sp,36
    5074:	f800283a 	ret

00005078 <__fp_lock>:
    5078:	0005883a 	mov	r2,zero
    507c:	f800283a 	ret

00005080 <__sfmoreglue>:
    5080:	defffc04 	addi	sp,sp,-16
    5084:	dc800215 	stw	r18,8(sp)
    5088:	2825883a 	mov	r18,r5
    508c:	dc000015 	stw	r16,0(sp)
    5090:	01401a04 	movi	r5,104
    5094:	2021883a 	mov	r16,r4
    5098:	913fffc4 	addi	r4,r18,-1
    509c:	dfc00315 	stw	ra,12(sp)
    50a0:	dc400115 	stw	r17,4(sp)
    50a4:	000b25c0 	call	b25c <__mulsi3>
    50a8:	8009883a 	mov	r4,r16
    50ac:	11401d04 	addi	r5,r2,116
    50b0:	1023883a 	mov	r17,r2
    50b4:	0005f940 	call	5f94 <_malloc_r>
    50b8:	1021883a 	mov	r16,r2
    50bc:	10000726 	beq	r2,zero,50dc <__sfmoreglue+0x5c>
    50c0:	11000304 	addi	r4,r2,12
    50c4:	10000015 	stw	zero,0(r2)
    50c8:	14800115 	stw	r18,4(r2)
    50cc:	11000215 	stw	r4,8(r2)
    50d0:	89801a04 	addi	r6,r17,104
    50d4:	000b883a 	mov	r5,zero
    50d8:	0006b280 	call	6b28 <memset>
    50dc:	8005883a 	mov	r2,r16
    50e0:	dfc00317 	ldw	ra,12(sp)
    50e4:	dc800217 	ldw	r18,8(sp)
    50e8:	dc400117 	ldw	r17,4(sp)
    50ec:	dc000017 	ldw	r16,0(sp)
    50f0:	dec00404 	addi	sp,sp,16
    50f4:	f800283a 	ret

000050f8 <__sfp>:
    50f8:	defffb04 	addi	sp,sp,-20
    50fc:	dc000015 	stw	r16,0(sp)
    5100:	040000b4 	movhi	r16,2
    5104:	8428ca04 	addi	r16,r16,-23768
    5108:	dcc00315 	stw	r19,12(sp)
    510c:	2027883a 	mov	r19,r4
    5110:	81000017 	ldw	r4,0(r16)
    5114:	dfc00415 	stw	ra,16(sp)
    5118:	dc800215 	stw	r18,8(sp)
    511c:	20800e17 	ldw	r2,56(r4)
    5120:	dc400115 	stw	r17,4(sp)
    5124:	1000021e 	bne	r2,zero,5130 <__sfp+0x38>
    5128:	0004edc0 	call	4edc <__sinit.part.1>
    512c:	81000017 	ldw	r4,0(r16)
    5130:	2480b804 	addi	r18,r4,736
    5134:	047fffc4 	movi	r17,-1
    5138:	91000117 	ldw	r4,4(r18)
    513c:	94000217 	ldw	r16,8(r18)
    5140:	213fffc4 	addi	r4,r4,-1
    5144:	20000a16 	blt	r4,zero,5170 <__sfp+0x78>
    5148:	8080030f 	ldh	r2,12(r16)
    514c:	10000c26 	beq	r2,zero,5180 <__sfp+0x88>
    5150:	80c01d04 	addi	r3,r16,116
    5154:	00000206 	br	5160 <__sfp+0x68>
    5158:	18bfe60f 	ldh	r2,-104(r3)
    515c:	10000826 	beq	r2,zero,5180 <__sfp+0x88>
    5160:	213fffc4 	addi	r4,r4,-1
    5164:	1c3ffd04 	addi	r16,r3,-12
    5168:	18c01a04 	addi	r3,r3,104
    516c:	247ffa1e 	bne	r4,r17,5158 <__alt_data_end+0xfffd5158>
    5170:	90800017 	ldw	r2,0(r18)
    5174:	10001d26 	beq	r2,zero,51ec <__sfp+0xf4>
    5178:	1025883a 	mov	r18,r2
    517c:	003fee06 	br	5138 <__alt_data_end+0xfffd5138>
    5180:	00bfffc4 	movi	r2,-1
    5184:	8080038d 	sth	r2,14(r16)
    5188:	00800044 	movi	r2,1
    518c:	8080030d 	sth	r2,12(r16)
    5190:	80001915 	stw	zero,100(r16)
    5194:	80000015 	stw	zero,0(r16)
    5198:	80000215 	stw	zero,8(r16)
    519c:	80000115 	stw	zero,4(r16)
    51a0:	80000415 	stw	zero,16(r16)
    51a4:	80000515 	stw	zero,20(r16)
    51a8:	80000615 	stw	zero,24(r16)
    51ac:	01800204 	movi	r6,8
    51b0:	000b883a 	mov	r5,zero
    51b4:	81001704 	addi	r4,r16,92
    51b8:	0006b280 	call	6b28 <memset>
    51bc:	8005883a 	mov	r2,r16
    51c0:	80000c15 	stw	zero,48(r16)
    51c4:	80000d15 	stw	zero,52(r16)
    51c8:	80001115 	stw	zero,68(r16)
    51cc:	80001215 	stw	zero,72(r16)
    51d0:	dfc00417 	ldw	ra,16(sp)
    51d4:	dcc00317 	ldw	r19,12(sp)
    51d8:	dc800217 	ldw	r18,8(sp)
    51dc:	dc400117 	ldw	r17,4(sp)
    51e0:	dc000017 	ldw	r16,0(sp)
    51e4:	dec00504 	addi	sp,sp,20
    51e8:	f800283a 	ret
    51ec:	01400104 	movi	r5,4
    51f0:	9809883a 	mov	r4,r19
    51f4:	00050800 	call	5080 <__sfmoreglue>
    51f8:	90800015 	stw	r2,0(r18)
    51fc:	103fde1e 	bne	r2,zero,5178 <__alt_data_end+0xfffd5178>
    5200:	00800304 	movi	r2,12
    5204:	98800015 	stw	r2,0(r19)
    5208:	0005883a 	mov	r2,zero
    520c:	003ff006 	br	51d0 <__alt_data_end+0xfffd51d0>

00005210 <_cleanup>:
    5210:	008000b4 	movhi	r2,2
    5214:	10a8ca04 	addi	r2,r2,-23768
    5218:	11000017 	ldw	r4,0(r2)
    521c:	01400074 	movhi	r5,1
    5220:	29677504 	addi	r5,r5,-25132
    5224:	0005c381 	jmpi	5c38 <_fwalk_reent>

00005228 <__sinit>:
    5228:	20800e17 	ldw	r2,56(r4)
    522c:	10000126 	beq	r2,zero,5234 <__sinit+0xc>
    5230:	f800283a 	ret
    5234:	0004edc1 	jmpi	4edc <__sinit.part.1>

00005238 <__sfp_lock_acquire>:
    5238:	f800283a 	ret

0000523c <__sfp_lock_release>:
    523c:	f800283a 	ret

00005240 <__sinit_lock_acquire>:
    5240:	f800283a 	ret

00005244 <__sinit_lock_release>:
    5244:	f800283a 	ret

00005248 <__fp_lock_all>:
    5248:	008000b4 	movhi	r2,2
    524c:	10a8cb04 	addi	r2,r2,-23764
    5250:	11000017 	ldw	r4,0(r2)
    5254:	01400034 	movhi	r5,0
    5258:	29541e04 	addi	r5,r5,20600
    525c:	0005b741 	jmpi	5b74 <_fwalk>

00005260 <__fp_unlock_all>:
    5260:	008000b4 	movhi	r2,2
    5264:	10a8cb04 	addi	r2,r2,-23764
    5268:	11000017 	ldw	r4,0(r2)
    526c:	01400034 	movhi	r5,0
    5270:	2953b204 	addi	r5,r5,20168
    5274:	0005b741 	jmpi	5b74 <_fwalk>

00005278 <_malloc_trim_r>:
    5278:	defffb04 	addi	sp,sp,-20
    527c:	dcc00315 	stw	r19,12(sp)
    5280:	04c000b4 	movhi	r19,2
    5284:	dc800215 	stw	r18,8(sp)
    5288:	dc400115 	stw	r17,4(sp)
    528c:	dc000015 	stw	r16,0(sp)
    5290:	dfc00415 	stw	ra,16(sp)
    5294:	2821883a 	mov	r16,r5
    5298:	9ce34204 	addi	r19,r19,-29432
    529c:	2025883a 	mov	r18,r4
    52a0:	000e8780 	call	e878 <__malloc_lock>
    52a4:	98800217 	ldw	r2,8(r19)
    52a8:	14400117 	ldw	r17,4(r2)
    52ac:	00bfff04 	movi	r2,-4
    52b0:	88a2703a 	and	r17,r17,r2
    52b4:	8c21c83a 	sub	r16,r17,r16
    52b8:	8403fbc4 	addi	r16,r16,4079
    52bc:	8020d33a 	srli	r16,r16,12
    52c0:	0083ffc4 	movi	r2,4095
    52c4:	843fffc4 	addi	r16,r16,-1
    52c8:	8020933a 	slli	r16,r16,12
    52cc:	1400060e 	bge	r2,r16,52e8 <_malloc_trim_r+0x70>
    52d0:	000b883a 	mov	r5,zero
    52d4:	9009883a 	mov	r4,r18
    52d8:	00082e00 	call	82e0 <_sbrk_r>
    52dc:	98c00217 	ldw	r3,8(r19)
    52e0:	1c47883a 	add	r3,r3,r17
    52e4:	10c00a26 	beq	r2,r3,5310 <_malloc_trim_r+0x98>
    52e8:	9009883a 	mov	r4,r18
    52ec:	000e9980 	call	e998 <__malloc_unlock>
    52f0:	0005883a 	mov	r2,zero
    52f4:	dfc00417 	ldw	ra,16(sp)
    52f8:	dcc00317 	ldw	r19,12(sp)
    52fc:	dc800217 	ldw	r18,8(sp)
    5300:	dc400117 	ldw	r17,4(sp)
    5304:	dc000017 	ldw	r16,0(sp)
    5308:	dec00504 	addi	sp,sp,20
    530c:	f800283a 	ret
    5310:	040bc83a 	sub	r5,zero,r16
    5314:	9009883a 	mov	r4,r18
    5318:	00082e00 	call	82e0 <_sbrk_r>
    531c:	00ffffc4 	movi	r3,-1
    5320:	10c00d26 	beq	r2,r3,5358 <_malloc_trim_r+0xe0>
    5324:	00c000b4 	movhi	r3,2
    5328:	18fc0604 	addi	r3,r3,-4072
    532c:	18800017 	ldw	r2,0(r3)
    5330:	99000217 	ldw	r4,8(r19)
    5334:	8c23c83a 	sub	r17,r17,r16
    5338:	8c400054 	ori	r17,r17,1
    533c:	1421c83a 	sub	r16,r2,r16
    5340:	24400115 	stw	r17,4(r4)
    5344:	9009883a 	mov	r4,r18
    5348:	1c000015 	stw	r16,0(r3)
    534c:	000e9980 	call	e998 <__malloc_unlock>
    5350:	00800044 	movi	r2,1
    5354:	003fe706 	br	52f4 <__alt_data_end+0xfffd52f4>
    5358:	000b883a 	mov	r5,zero
    535c:	9009883a 	mov	r4,r18
    5360:	00082e00 	call	82e0 <_sbrk_r>
    5364:	99000217 	ldw	r4,8(r19)
    5368:	014003c4 	movi	r5,15
    536c:	1107c83a 	sub	r3,r2,r4
    5370:	28ffdd0e 	bge	r5,r3,52e8 <__alt_data_end+0xfffd52e8>
    5374:	014000b4 	movhi	r5,2
    5378:	2968cd04 	addi	r5,r5,-23756
    537c:	29400017 	ldw	r5,0(r5)
    5380:	18c00054 	ori	r3,r3,1
    5384:	20c00115 	stw	r3,4(r4)
    5388:	00c000b4 	movhi	r3,2
    538c:	1145c83a 	sub	r2,r2,r5
    5390:	18fc0604 	addi	r3,r3,-4072
    5394:	18800015 	stw	r2,0(r3)
    5398:	003fd306 	br	52e8 <__alt_data_end+0xfffd52e8>

0000539c <_free_r>:
    539c:	28004126 	beq	r5,zero,54a4 <_free_r+0x108>
